ARM GAS  /tmp/cc6sR8f9.s 			page 1


   1              		.cpu cortex-m3
   2              		.eabi_attribute 20, 1	@ Tag_ABI_FP_denormal
   3              		.eabi_attribute 21, 1	@ Tag_ABI_FP_exceptions
   4              		.eabi_attribute 23, 3	@ Tag_ABI_FP_number_model
   5              		.eabi_attribute 24, 1	@ Tag_ABI_align8_needed
   6              		.eabi_attribute 25, 1	@ Tag_ABI_align8_preserved
   7              		.eabi_attribute 26, 1	@ Tag_ABI_enum_size
   8              		.eabi_attribute 30, 4	@ Tag_ABI_optimization_goals
   9              		.eabi_attribute 34, 1	@ Tag_CPU_unaligned_access
  10              		.eabi_attribute 18, 4	@ Tag_ABI_PCS_wchar_t
  11              		.file	"stm32f10x_rcc.c"
  12              	@ GNU C17 (GNU Tools for Arm Embedded Processors 9-2019-q4-major) version 9.2.1 20191025 (release) 
  13              	@	compiled by GNU C version 4.8.4, GMP version 6.1.0, MPFR version 3.1.4, MPC version 1.0.3, isl ve
  14              	
  15              	@ GGC heuristics: --param ggc-min-expand=97 --param ggc-min-heapsize=126131
  16              	@ options passed:  -I . -I ./user
  17              	@ -I ./stm32f10x_lib/STM32F10x_StdPeriph_Driver
  18              	@ -I ./stm32f10x_lib/CMSIS/CM3/CoreSupport
  19              	@ -I ./stm32f10x_lib/CMSIS/CM3/DeviceSupport/ST/STM32F10x
  20              	@ -I ./stm32f10x_lib/STM32F10x_StdPeriph_Driver/inc
  21              	@ -I ./stm32f10x_lib/STM32F10x_StdPeriph_Driver -imultilib thumb/v7-m/nofp
  22              	@ -iprefix /root/gcc-arm-none-eabi-9-2019-q4-major/bin/../lib/gcc/arm-none-eabi/9.2.1/
  23              	@ -isysroot /root/gcc-arm-none-eabi-9-2019-q4-major/bin/../arm-none-eabi
  24              	@ -D__USES_INITFINI__ -D STM32F10X_MD_VL -D USE_STDPERIPH_DRIVER
  25              	@ -D HSE_VALUE=8000000 -D RUN_FROM_FLASH=1
  26              	@ stm32f10x_lib/STM32F10x_StdPeriph_Driver/src/stm32f10x_rcc.c
  27              	@ -mcpu=cortex-m3 -mthumb -mfloat-abi=soft -march=armv7-m
  28              	@ -auxbase-strip stm32f10x_lib/STM32F10x_StdPeriph_Driver/src/stm32f10x_rcc.o
  29              	@ -g -gdwarf-2 -Os -Wall -fomit-frame-pointer -fverbose-asm
  30              	@ options enabled:  -faggressive-loop-optimizations -fassume-phsa
  31              	@ -fauto-inc-dec -fbranch-count-reg -fcaller-saves -fcode-hoisting
  32              	@ -fcombine-stack-adjustments -fcommon -fcompare-elim -fcprop-registers
  33              	@ -fcrossjumping -fcse-follow-jumps -fdefer-pop
  34              	@ -fdelete-null-pointer-checks -fdevirtualize -fdevirtualize-speculatively
  35              	@ -fdwarf2-cfi-asm -fearly-inlining -feliminate-unused-debug-types
  36              	@ -fexpensive-optimizations -fforward-propagate -ffp-int-builtin-inexact
  37              	@ -ffunction-cse -fgcse -fgcse-lm -fgnu-runtime -fgnu-unique
  38              	@ -fguess-branch-probability -fhoist-adjacent-loads -fident -fif-conversion
  39              	@ -fif-conversion2 -findirect-inlining -finline -finline-atomics
  40              	@ -finline-functions -finline-functions-called-once
  41              	@ -finline-small-functions -fipa-bit-cp -fipa-cp -fipa-icf
  42              	@ -fipa-icf-functions -fipa-icf-variables -fipa-profile -fipa-pure-const
  43              	@ -fipa-ra -fipa-reference -fipa-reference-addressable -fipa-sra
  44              	@ -fipa-stack-alignment -fipa-vrp -fira-hoist-pressure
  45              	@ -fira-share-save-slots -fira-share-spill-slots
  46              	@ -fisolate-erroneous-paths-dereference -fivopts -fkeep-static-consts
  47              	@ -fleading-underscore -flifetime-dse -flra-remat -flto-odr-type-merging
  48              	@ -fmath-errno -fmerge-constants -fmerge-debug-strings
  49              	@ -fmove-loop-invariants -fomit-frame-pointer -foptimize-sibling-calls
  50              	@ -fpartial-inlining -fpeephole -fpeephole2 -fplt -fprefetch-loop-arrays
  51              	@ -freg-struct-return -freorder-blocks -freorder-functions
  52              	@ -frerun-cse-after-loop -fsched-critical-path-heuristic
  53              	@ -fsched-dep-count-heuristic -fsched-group-heuristic -fsched-interblock
  54              	@ -fsched-last-insn-heuristic -fsched-pressure -fsched-rank-heuristic
  55              	@ -fsched-spec -fsched-spec-insn-heuristic -fsched-stalled-insns-dep
  56              	@ -fschedule-insns2 -fsection-anchors -fsemantic-interposition
  57              	@ -fshow-column -fshrink-wrap-separate -fsigned-zeros
ARM GAS  /tmp/cc6sR8f9.s 			page 2


  58              	@ -fsplit-ivs-in-unroller -fsplit-wide-types -fssa-backprop -fssa-phiopt
  59              	@ -fstdarg-opt -fstore-merging -fstrict-aliasing
  60              	@ -fstrict-volatile-bitfields -fsync-libcalls -fthread-jumps
  61              	@ -ftoplevel-reorder -ftrapping-math -ftree-bit-ccp -ftree-builtin-call-dce
  62              	@ -ftree-ccp -ftree-ch -ftree-coalesce-vars -ftree-copy-prop -ftree-cselim
  63              	@ -ftree-dce -ftree-dominator-opts -ftree-dse -ftree-forwprop -ftree-fre
  64              	@ -ftree-loop-if-convert -ftree-loop-im -ftree-loop-ivcanon
  65              	@ -ftree-loop-optimize -ftree-parallelize-loops= -ftree-phiprop -ftree-pre
  66              	@ -ftree-pta -ftree-reassoc -ftree-scev-cprop -ftree-sink -ftree-slsr
  67              	@ -ftree-sra -ftree-switch-conversion -ftree-tail-merge -ftree-ter
  68              	@ -ftree-vrp -funit-at-a-time -fvar-tracking -fvar-tracking-assignments
  69              	@ -fverbose-asm -fzero-initialized-in-bss -masm-syntax-unified -mbe32
  70              	@ -mfix-cortex-m3-ldrd -mlittle-endian -mpic-data-is-text-relative
  71              	@ -msched-prolog -mthumb -munaligned-access -mvectorize-with-neon-quad
  72              	
  73              		.text
  74              	.Ltext0:
  75              		.cfi_sections	.debug_frame
  76              		.align	1
  77              		.global	RCC_DeInit
  78              		.arch armv7-m
  79              		.syntax unified
  80              		.thumb
  81              		.thumb_func
  82              		.fpu softvfp
  83              		.type	RCC_DeInit, %function
  84              	RCC_DeInit:
  85              	.LFB29:
  86              		.file 1 "stm32f10x_lib/STM32F10x_StdPeriph_Driver/src/stm32f10x_rcc.c"
   1:stm32f10x_lib/STM32F10x_StdPeriph_Driver/src/stm32f10x_rcc.c **** /**
   2:stm32f10x_lib/STM32F10x_StdPeriph_Driver/src/stm32f10x_rcc.c ****   ******************************************************************************
   3:stm32f10x_lib/STM32F10x_StdPeriph_Driver/src/stm32f10x_rcc.c ****   * @file    stm32f10x_rcc.c
   4:stm32f10x_lib/STM32F10x_StdPeriph_Driver/src/stm32f10x_rcc.c ****   * @author  MCD Application Team
   5:stm32f10x_lib/STM32F10x_StdPeriph_Driver/src/stm32f10x_rcc.c ****   * @version V3.5.0
   6:stm32f10x_lib/STM32F10x_StdPeriph_Driver/src/stm32f10x_rcc.c ****   * @date    11-March-2011
   7:stm32f10x_lib/STM32F10x_StdPeriph_Driver/src/stm32f10x_rcc.c ****   * @brief   This file provides all the RCC firmware functions.
   8:stm32f10x_lib/STM32F10x_StdPeriph_Driver/src/stm32f10x_rcc.c ****   ******************************************************************************
   9:stm32f10x_lib/STM32F10x_StdPeriph_Driver/src/stm32f10x_rcc.c ****   * @attention
  10:stm32f10x_lib/STM32F10x_StdPeriph_Driver/src/stm32f10x_rcc.c ****   *
  11:stm32f10x_lib/STM32F10x_StdPeriph_Driver/src/stm32f10x_rcc.c ****   * THE PRESENT FIRMWARE WHICH IS FOR GUIDANCE ONLY AIMS AT PROVIDING CUSTOMERS
  12:stm32f10x_lib/STM32F10x_StdPeriph_Driver/src/stm32f10x_rcc.c ****   * WITH CODING INFORMATION REGARDING THEIR PRODUCTS IN ORDER FOR THEM TO SAVE
  13:stm32f10x_lib/STM32F10x_StdPeriph_Driver/src/stm32f10x_rcc.c ****   * TIME. AS A RESULT, STMICROELECTRONICS SHALL NOT BE HELD LIABLE FOR ANY
  14:stm32f10x_lib/STM32F10x_StdPeriph_Driver/src/stm32f10x_rcc.c ****   * DIRECT, INDIRECT OR CONSEQUENTIAL DAMAGES WITH RESPECT TO ANY CLAIMS ARISING
  15:stm32f10x_lib/STM32F10x_StdPeriph_Driver/src/stm32f10x_rcc.c ****   * FROM THE CONTENT OF SUCH FIRMWARE AND/OR THE USE MADE BY CUSTOMERS OF THE
  16:stm32f10x_lib/STM32F10x_StdPeriph_Driver/src/stm32f10x_rcc.c ****   * CODING INFORMATION CONTAINED HEREIN IN CONNECTION WITH THEIR PRODUCTS.
  17:stm32f10x_lib/STM32F10x_StdPeriph_Driver/src/stm32f10x_rcc.c ****   *
  18:stm32f10x_lib/STM32F10x_StdPeriph_Driver/src/stm32f10x_rcc.c ****   * <h2><center>&copy; COPYRIGHT 2011 STMicroelectronics</center></h2>
  19:stm32f10x_lib/STM32F10x_StdPeriph_Driver/src/stm32f10x_rcc.c ****   ******************************************************************************
  20:stm32f10x_lib/STM32F10x_StdPeriph_Driver/src/stm32f10x_rcc.c ****   */
  21:stm32f10x_lib/STM32F10x_StdPeriph_Driver/src/stm32f10x_rcc.c **** 
  22:stm32f10x_lib/STM32F10x_StdPeriph_Driver/src/stm32f10x_rcc.c **** /* Includes ------------------------------------------------------------------*/
  23:stm32f10x_lib/STM32F10x_StdPeriph_Driver/src/stm32f10x_rcc.c **** #include "stm32f10x_rcc.h"
  24:stm32f10x_lib/STM32F10x_StdPeriph_Driver/src/stm32f10x_rcc.c **** 
  25:stm32f10x_lib/STM32F10x_StdPeriph_Driver/src/stm32f10x_rcc.c **** /** @addtogroup STM32F10x_StdPeriph_Driver
  26:stm32f10x_lib/STM32F10x_StdPeriph_Driver/src/stm32f10x_rcc.c ****   * @{
  27:stm32f10x_lib/STM32F10x_StdPeriph_Driver/src/stm32f10x_rcc.c ****   */
  28:stm32f10x_lib/STM32F10x_StdPeriph_Driver/src/stm32f10x_rcc.c **** 
ARM GAS  /tmp/cc6sR8f9.s 			page 3


  29:stm32f10x_lib/STM32F10x_StdPeriph_Driver/src/stm32f10x_rcc.c **** /** @defgroup RCC 
  30:stm32f10x_lib/STM32F10x_StdPeriph_Driver/src/stm32f10x_rcc.c ****   * @brief RCC driver modules
  31:stm32f10x_lib/STM32F10x_StdPeriph_Driver/src/stm32f10x_rcc.c ****   * @{
  32:stm32f10x_lib/STM32F10x_StdPeriph_Driver/src/stm32f10x_rcc.c ****   */ 
  33:stm32f10x_lib/STM32F10x_StdPeriph_Driver/src/stm32f10x_rcc.c **** 
  34:stm32f10x_lib/STM32F10x_StdPeriph_Driver/src/stm32f10x_rcc.c **** /** @defgroup RCC_Private_TypesDefinitions
  35:stm32f10x_lib/STM32F10x_StdPeriph_Driver/src/stm32f10x_rcc.c ****   * @{
  36:stm32f10x_lib/STM32F10x_StdPeriph_Driver/src/stm32f10x_rcc.c ****   */
  37:stm32f10x_lib/STM32F10x_StdPeriph_Driver/src/stm32f10x_rcc.c **** 
  38:stm32f10x_lib/STM32F10x_StdPeriph_Driver/src/stm32f10x_rcc.c **** /**
  39:stm32f10x_lib/STM32F10x_StdPeriph_Driver/src/stm32f10x_rcc.c ****   * @}
  40:stm32f10x_lib/STM32F10x_StdPeriph_Driver/src/stm32f10x_rcc.c ****   */
  41:stm32f10x_lib/STM32F10x_StdPeriph_Driver/src/stm32f10x_rcc.c **** 
  42:stm32f10x_lib/STM32F10x_StdPeriph_Driver/src/stm32f10x_rcc.c **** /** @defgroup RCC_Private_Defines
  43:stm32f10x_lib/STM32F10x_StdPeriph_Driver/src/stm32f10x_rcc.c ****   * @{
  44:stm32f10x_lib/STM32F10x_StdPeriph_Driver/src/stm32f10x_rcc.c ****   */
  45:stm32f10x_lib/STM32F10x_StdPeriph_Driver/src/stm32f10x_rcc.c **** 
  46:stm32f10x_lib/STM32F10x_StdPeriph_Driver/src/stm32f10x_rcc.c **** /* ------------ RCC registers bit address in the alias region ----------- */
  47:stm32f10x_lib/STM32F10x_StdPeriph_Driver/src/stm32f10x_rcc.c **** #define RCC_OFFSET                (RCC_BASE - PERIPH_BASE)
  48:stm32f10x_lib/STM32F10x_StdPeriph_Driver/src/stm32f10x_rcc.c **** 
  49:stm32f10x_lib/STM32F10x_StdPeriph_Driver/src/stm32f10x_rcc.c **** /* --- CR Register ---*/
  50:stm32f10x_lib/STM32F10x_StdPeriph_Driver/src/stm32f10x_rcc.c **** 
  51:stm32f10x_lib/STM32F10x_StdPeriph_Driver/src/stm32f10x_rcc.c **** /* Alias word address of HSION bit */
  52:stm32f10x_lib/STM32F10x_StdPeriph_Driver/src/stm32f10x_rcc.c **** #define CR_OFFSET                 (RCC_OFFSET + 0x00)
  53:stm32f10x_lib/STM32F10x_StdPeriph_Driver/src/stm32f10x_rcc.c **** #define HSION_BitNumber           0x00
  54:stm32f10x_lib/STM32F10x_StdPeriph_Driver/src/stm32f10x_rcc.c **** #define CR_HSION_BB               (PERIPH_BB_BASE + (CR_OFFSET * 32) + (HSION_BitNumber * 4))
  55:stm32f10x_lib/STM32F10x_StdPeriph_Driver/src/stm32f10x_rcc.c **** 
  56:stm32f10x_lib/STM32F10x_StdPeriph_Driver/src/stm32f10x_rcc.c **** /* Alias word address of PLLON bit */
  57:stm32f10x_lib/STM32F10x_StdPeriph_Driver/src/stm32f10x_rcc.c **** #define PLLON_BitNumber           0x18
  58:stm32f10x_lib/STM32F10x_StdPeriph_Driver/src/stm32f10x_rcc.c **** #define CR_PLLON_BB               (PERIPH_BB_BASE + (CR_OFFSET * 32) + (PLLON_BitNumber * 4))
  59:stm32f10x_lib/STM32F10x_StdPeriph_Driver/src/stm32f10x_rcc.c **** 
  60:stm32f10x_lib/STM32F10x_StdPeriph_Driver/src/stm32f10x_rcc.c **** #ifdef STM32F10X_CL
  61:stm32f10x_lib/STM32F10x_StdPeriph_Driver/src/stm32f10x_rcc.c ****  /* Alias word address of PLL2ON bit */
  62:stm32f10x_lib/STM32F10x_StdPeriph_Driver/src/stm32f10x_rcc.c ****  #define PLL2ON_BitNumber          0x1A
  63:stm32f10x_lib/STM32F10x_StdPeriph_Driver/src/stm32f10x_rcc.c ****  #define CR_PLL2ON_BB              (PERIPH_BB_BASE + (CR_OFFSET * 32) + (PLL2ON_BitNumber * 4))
  64:stm32f10x_lib/STM32F10x_StdPeriph_Driver/src/stm32f10x_rcc.c **** 
  65:stm32f10x_lib/STM32F10x_StdPeriph_Driver/src/stm32f10x_rcc.c ****  /* Alias word address of PLL3ON bit */
  66:stm32f10x_lib/STM32F10x_StdPeriph_Driver/src/stm32f10x_rcc.c ****  #define PLL3ON_BitNumber          0x1C
  67:stm32f10x_lib/STM32F10x_StdPeriph_Driver/src/stm32f10x_rcc.c ****  #define CR_PLL3ON_BB              (PERIPH_BB_BASE + (CR_OFFSET * 32) + (PLL3ON_BitNumber * 4))
  68:stm32f10x_lib/STM32F10x_StdPeriph_Driver/src/stm32f10x_rcc.c **** #endif /* STM32F10X_CL */ 
  69:stm32f10x_lib/STM32F10x_StdPeriph_Driver/src/stm32f10x_rcc.c **** 
  70:stm32f10x_lib/STM32F10x_StdPeriph_Driver/src/stm32f10x_rcc.c **** /* Alias word address of CSSON bit */
  71:stm32f10x_lib/STM32F10x_StdPeriph_Driver/src/stm32f10x_rcc.c **** #define CSSON_BitNumber           0x13
  72:stm32f10x_lib/STM32F10x_StdPeriph_Driver/src/stm32f10x_rcc.c **** #define CR_CSSON_BB               (PERIPH_BB_BASE + (CR_OFFSET * 32) + (CSSON_BitNumber * 4))
  73:stm32f10x_lib/STM32F10x_StdPeriph_Driver/src/stm32f10x_rcc.c **** 
  74:stm32f10x_lib/STM32F10x_StdPeriph_Driver/src/stm32f10x_rcc.c **** /* --- CFGR Register ---*/
  75:stm32f10x_lib/STM32F10x_StdPeriph_Driver/src/stm32f10x_rcc.c **** 
  76:stm32f10x_lib/STM32F10x_StdPeriph_Driver/src/stm32f10x_rcc.c **** /* Alias word address of USBPRE bit */
  77:stm32f10x_lib/STM32F10x_StdPeriph_Driver/src/stm32f10x_rcc.c **** #define CFGR_OFFSET               (RCC_OFFSET + 0x04)
  78:stm32f10x_lib/STM32F10x_StdPeriph_Driver/src/stm32f10x_rcc.c **** 
  79:stm32f10x_lib/STM32F10x_StdPeriph_Driver/src/stm32f10x_rcc.c **** #ifndef STM32F10X_CL
  80:stm32f10x_lib/STM32F10x_StdPeriph_Driver/src/stm32f10x_rcc.c ****  #define USBPRE_BitNumber          0x16
  81:stm32f10x_lib/STM32F10x_StdPeriph_Driver/src/stm32f10x_rcc.c ****  #define CFGR_USBPRE_BB            (PERIPH_BB_BASE + (CFGR_OFFSET * 32) + (USBPRE_BitNumber * 4))
  82:stm32f10x_lib/STM32F10x_StdPeriph_Driver/src/stm32f10x_rcc.c **** #else
  83:stm32f10x_lib/STM32F10x_StdPeriph_Driver/src/stm32f10x_rcc.c ****  #define OTGFSPRE_BitNumber        0x16
  84:stm32f10x_lib/STM32F10x_StdPeriph_Driver/src/stm32f10x_rcc.c ****  #define CFGR_OTGFSPRE_BB          (PERIPH_BB_BASE + (CFGR_OFFSET * 32) + (OTGFSPRE_BitNumber * 4))
  85:stm32f10x_lib/STM32F10x_StdPeriph_Driver/src/stm32f10x_rcc.c **** #endif /* STM32F10X_CL */ 
ARM GAS  /tmp/cc6sR8f9.s 			page 4


  86:stm32f10x_lib/STM32F10x_StdPeriph_Driver/src/stm32f10x_rcc.c **** 
  87:stm32f10x_lib/STM32F10x_StdPeriph_Driver/src/stm32f10x_rcc.c **** /* --- BDCR Register ---*/
  88:stm32f10x_lib/STM32F10x_StdPeriph_Driver/src/stm32f10x_rcc.c **** 
  89:stm32f10x_lib/STM32F10x_StdPeriph_Driver/src/stm32f10x_rcc.c **** /* Alias word address of RTCEN bit */
  90:stm32f10x_lib/STM32F10x_StdPeriph_Driver/src/stm32f10x_rcc.c **** #define BDCR_OFFSET               (RCC_OFFSET + 0x20)
  91:stm32f10x_lib/STM32F10x_StdPeriph_Driver/src/stm32f10x_rcc.c **** #define RTCEN_BitNumber           0x0F
  92:stm32f10x_lib/STM32F10x_StdPeriph_Driver/src/stm32f10x_rcc.c **** #define BDCR_RTCEN_BB             (PERIPH_BB_BASE + (BDCR_OFFSET * 32) + (RTCEN_BitNumber * 4))
  93:stm32f10x_lib/STM32F10x_StdPeriph_Driver/src/stm32f10x_rcc.c **** 
  94:stm32f10x_lib/STM32F10x_StdPeriph_Driver/src/stm32f10x_rcc.c **** /* Alias word address of BDRST bit */
  95:stm32f10x_lib/STM32F10x_StdPeriph_Driver/src/stm32f10x_rcc.c **** #define BDRST_BitNumber           0x10
  96:stm32f10x_lib/STM32F10x_StdPeriph_Driver/src/stm32f10x_rcc.c **** #define BDCR_BDRST_BB             (PERIPH_BB_BASE + (BDCR_OFFSET * 32) + (BDRST_BitNumber * 4))
  97:stm32f10x_lib/STM32F10x_StdPeriph_Driver/src/stm32f10x_rcc.c **** 
  98:stm32f10x_lib/STM32F10x_StdPeriph_Driver/src/stm32f10x_rcc.c **** /* --- CSR Register ---*/
  99:stm32f10x_lib/STM32F10x_StdPeriph_Driver/src/stm32f10x_rcc.c **** 
 100:stm32f10x_lib/STM32F10x_StdPeriph_Driver/src/stm32f10x_rcc.c **** /* Alias word address of LSION bit */
 101:stm32f10x_lib/STM32F10x_StdPeriph_Driver/src/stm32f10x_rcc.c **** #define CSR_OFFSET                (RCC_OFFSET + 0x24)
 102:stm32f10x_lib/STM32F10x_StdPeriph_Driver/src/stm32f10x_rcc.c **** #define LSION_BitNumber           0x00
 103:stm32f10x_lib/STM32F10x_StdPeriph_Driver/src/stm32f10x_rcc.c **** #define CSR_LSION_BB              (PERIPH_BB_BASE + (CSR_OFFSET * 32) + (LSION_BitNumber * 4))
 104:stm32f10x_lib/STM32F10x_StdPeriph_Driver/src/stm32f10x_rcc.c **** 
 105:stm32f10x_lib/STM32F10x_StdPeriph_Driver/src/stm32f10x_rcc.c **** #ifdef STM32F10X_CL
 106:stm32f10x_lib/STM32F10x_StdPeriph_Driver/src/stm32f10x_rcc.c **** /* --- CFGR2 Register ---*/
 107:stm32f10x_lib/STM32F10x_StdPeriph_Driver/src/stm32f10x_rcc.c **** 
 108:stm32f10x_lib/STM32F10x_StdPeriph_Driver/src/stm32f10x_rcc.c ****  /* Alias word address of I2S2SRC bit */
 109:stm32f10x_lib/STM32F10x_StdPeriph_Driver/src/stm32f10x_rcc.c ****  #define CFGR2_OFFSET              (RCC_OFFSET + 0x2C)
 110:stm32f10x_lib/STM32F10x_StdPeriph_Driver/src/stm32f10x_rcc.c ****  #define I2S2SRC_BitNumber         0x11
 111:stm32f10x_lib/STM32F10x_StdPeriph_Driver/src/stm32f10x_rcc.c ****  #define CFGR2_I2S2SRC_BB          (PERIPH_BB_BASE + (CFGR2_OFFSET * 32) + (I2S2SRC_BitNumber * 4))
 112:stm32f10x_lib/STM32F10x_StdPeriph_Driver/src/stm32f10x_rcc.c **** 
 113:stm32f10x_lib/STM32F10x_StdPeriph_Driver/src/stm32f10x_rcc.c ****  /* Alias word address of I2S3SRC bit */
 114:stm32f10x_lib/STM32F10x_StdPeriph_Driver/src/stm32f10x_rcc.c ****  #define I2S3SRC_BitNumber         0x12
 115:stm32f10x_lib/STM32F10x_StdPeriph_Driver/src/stm32f10x_rcc.c ****  #define CFGR2_I2S3SRC_BB          (PERIPH_BB_BASE + (CFGR2_OFFSET * 32) + (I2S3SRC_BitNumber * 4))
 116:stm32f10x_lib/STM32F10x_StdPeriph_Driver/src/stm32f10x_rcc.c **** #endif /* STM32F10X_CL */
 117:stm32f10x_lib/STM32F10x_StdPeriph_Driver/src/stm32f10x_rcc.c **** 
 118:stm32f10x_lib/STM32F10x_StdPeriph_Driver/src/stm32f10x_rcc.c **** /* ---------------------- RCC registers bit mask ------------------------ */
 119:stm32f10x_lib/STM32F10x_StdPeriph_Driver/src/stm32f10x_rcc.c **** 
 120:stm32f10x_lib/STM32F10x_StdPeriph_Driver/src/stm32f10x_rcc.c **** /* CR register bit mask */
 121:stm32f10x_lib/STM32F10x_StdPeriph_Driver/src/stm32f10x_rcc.c **** #define CR_HSEBYP_Reset           ((uint32_t)0xFFFBFFFF)
 122:stm32f10x_lib/STM32F10x_StdPeriph_Driver/src/stm32f10x_rcc.c **** #define CR_HSEBYP_Set             ((uint32_t)0x00040000)
 123:stm32f10x_lib/STM32F10x_StdPeriph_Driver/src/stm32f10x_rcc.c **** #define CR_HSEON_Reset            ((uint32_t)0xFFFEFFFF)
 124:stm32f10x_lib/STM32F10x_StdPeriph_Driver/src/stm32f10x_rcc.c **** #define CR_HSEON_Set              ((uint32_t)0x00010000)
 125:stm32f10x_lib/STM32F10x_StdPeriph_Driver/src/stm32f10x_rcc.c **** #define CR_HSITRIM_Mask           ((uint32_t)0xFFFFFF07)
 126:stm32f10x_lib/STM32F10x_StdPeriph_Driver/src/stm32f10x_rcc.c **** 
 127:stm32f10x_lib/STM32F10x_StdPeriph_Driver/src/stm32f10x_rcc.c **** /* CFGR register bit mask */
 128:stm32f10x_lib/STM32F10x_StdPeriph_Driver/src/stm32f10x_rcc.c **** #if defined (STM32F10X_LD_VL) || defined (STM32F10X_MD_VL) || defined (STM32F10X_HD_VL) || defined 
 129:stm32f10x_lib/STM32F10x_StdPeriph_Driver/src/stm32f10x_rcc.c ****  #define CFGR_PLL_Mask            ((uint32_t)0xFFC2FFFF)
 130:stm32f10x_lib/STM32F10x_StdPeriph_Driver/src/stm32f10x_rcc.c **** #else
 131:stm32f10x_lib/STM32F10x_StdPeriph_Driver/src/stm32f10x_rcc.c ****  #define CFGR_PLL_Mask            ((uint32_t)0xFFC0FFFF)
 132:stm32f10x_lib/STM32F10x_StdPeriph_Driver/src/stm32f10x_rcc.c **** #endif /* STM32F10X_CL */ 
 133:stm32f10x_lib/STM32F10x_StdPeriph_Driver/src/stm32f10x_rcc.c **** 
 134:stm32f10x_lib/STM32F10x_StdPeriph_Driver/src/stm32f10x_rcc.c **** #define CFGR_PLLMull_Mask         ((uint32_t)0x003C0000)
 135:stm32f10x_lib/STM32F10x_StdPeriph_Driver/src/stm32f10x_rcc.c **** #define CFGR_PLLSRC_Mask          ((uint32_t)0x00010000)
 136:stm32f10x_lib/STM32F10x_StdPeriph_Driver/src/stm32f10x_rcc.c **** #define CFGR_PLLXTPRE_Mask        ((uint32_t)0x00020000)
 137:stm32f10x_lib/STM32F10x_StdPeriph_Driver/src/stm32f10x_rcc.c **** #define CFGR_SWS_Mask             ((uint32_t)0x0000000C)
 138:stm32f10x_lib/STM32F10x_StdPeriph_Driver/src/stm32f10x_rcc.c **** #define CFGR_SW_Mask              ((uint32_t)0xFFFFFFFC)
 139:stm32f10x_lib/STM32F10x_StdPeriph_Driver/src/stm32f10x_rcc.c **** #define CFGR_HPRE_Reset_Mask      ((uint32_t)0xFFFFFF0F)
 140:stm32f10x_lib/STM32F10x_StdPeriph_Driver/src/stm32f10x_rcc.c **** #define CFGR_HPRE_Set_Mask        ((uint32_t)0x000000F0)
 141:stm32f10x_lib/STM32F10x_StdPeriph_Driver/src/stm32f10x_rcc.c **** #define CFGR_PPRE1_Reset_Mask     ((uint32_t)0xFFFFF8FF)
 142:stm32f10x_lib/STM32F10x_StdPeriph_Driver/src/stm32f10x_rcc.c **** #define CFGR_PPRE1_Set_Mask       ((uint32_t)0x00000700)
ARM GAS  /tmp/cc6sR8f9.s 			page 5


 143:stm32f10x_lib/STM32F10x_StdPeriph_Driver/src/stm32f10x_rcc.c **** #define CFGR_PPRE2_Reset_Mask     ((uint32_t)0xFFFFC7FF)
 144:stm32f10x_lib/STM32F10x_StdPeriph_Driver/src/stm32f10x_rcc.c **** #define CFGR_PPRE2_Set_Mask       ((uint32_t)0x00003800)
 145:stm32f10x_lib/STM32F10x_StdPeriph_Driver/src/stm32f10x_rcc.c **** #define CFGR_ADCPRE_Reset_Mask    ((uint32_t)0xFFFF3FFF)
 146:stm32f10x_lib/STM32F10x_StdPeriph_Driver/src/stm32f10x_rcc.c **** #define CFGR_ADCPRE_Set_Mask      ((uint32_t)0x0000C000)
 147:stm32f10x_lib/STM32F10x_StdPeriph_Driver/src/stm32f10x_rcc.c **** 
 148:stm32f10x_lib/STM32F10x_StdPeriph_Driver/src/stm32f10x_rcc.c **** /* CSR register bit mask */
 149:stm32f10x_lib/STM32F10x_StdPeriph_Driver/src/stm32f10x_rcc.c **** #define CSR_RMVF_Set              ((uint32_t)0x01000000)
 150:stm32f10x_lib/STM32F10x_StdPeriph_Driver/src/stm32f10x_rcc.c **** 
 151:stm32f10x_lib/STM32F10x_StdPeriph_Driver/src/stm32f10x_rcc.c **** #if defined (STM32F10X_LD_VL) || defined (STM32F10X_MD_VL) || defined (STM32F10X_HD_VL) || defined 
 152:stm32f10x_lib/STM32F10x_StdPeriph_Driver/src/stm32f10x_rcc.c **** /* CFGR2 register bit mask */
 153:stm32f10x_lib/STM32F10x_StdPeriph_Driver/src/stm32f10x_rcc.c ****  #define CFGR2_PREDIV1SRC         ((uint32_t)0x00010000)
 154:stm32f10x_lib/STM32F10x_StdPeriph_Driver/src/stm32f10x_rcc.c ****  #define CFGR2_PREDIV1            ((uint32_t)0x0000000F)
 155:stm32f10x_lib/STM32F10x_StdPeriph_Driver/src/stm32f10x_rcc.c **** #endif
 156:stm32f10x_lib/STM32F10x_StdPeriph_Driver/src/stm32f10x_rcc.c **** #ifdef STM32F10X_CL
 157:stm32f10x_lib/STM32F10x_StdPeriph_Driver/src/stm32f10x_rcc.c ****  #define CFGR2_PREDIV2            ((uint32_t)0x000000F0)
 158:stm32f10x_lib/STM32F10x_StdPeriph_Driver/src/stm32f10x_rcc.c ****  #define CFGR2_PLL2MUL            ((uint32_t)0x00000F00)
 159:stm32f10x_lib/STM32F10x_StdPeriph_Driver/src/stm32f10x_rcc.c ****  #define CFGR2_PLL3MUL            ((uint32_t)0x0000F000)
 160:stm32f10x_lib/STM32F10x_StdPeriph_Driver/src/stm32f10x_rcc.c **** #endif /* STM32F10X_CL */ 
 161:stm32f10x_lib/STM32F10x_StdPeriph_Driver/src/stm32f10x_rcc.c **** 
 162:stm32f10x_lib/STM32F10x_StdPeriph_Driver/src/stm32f10x_rcc.c **** /* RCC Flag Mask */
 163:stm32f10x_lib/STM32F10x_StdPeriph_Driver/src/stm32f10x_rcc.c **** #define FLAG_Mask                 ((uint8_t)0x1F)
 164:stm32f10x_lib/STM32F10x_StdPeriph_Driver/src/stm32f10x_rcc.c **** 
 165:stm32f10x_lib/STM32F10x_StdPeriph_Driver/src/stm32f10x_rcc.c **** /* CIR register byte 2 (Bits[15:8]) base address */
 166:stm32f10x_lib/STM32F10x_StdPeriph_Driver/src/stm32f10x_rcc.c **** #define CIR_BYTE2_ADDRESS         ((uint32_t)0x40021009)
 167:stm32f10x_lib/STM32F10x_StdPeriph_Driver/src/stm32f10x_rcc.c **** 
 168:stm32f10x_lib/STM32F10x_StdPeriph_Driver/src/stm32f10x_rcc.c **** /* CIR register byte 3 (Bits[23:16]) base address */
 169:stm32f10x_lib/STM32F10x_StdPeriph_Driver/src/stm32f10x_rcc.c **** #define CIR_BYTE3_ADDRESS         ((uint32_t)0x4002100A)
 170:stm32f10x_lib/STM32F10x_StdPeriph_Driver/src/stm32f10x_rcc.c **** 
 171:stm32f10x_lib/STM32F10x_StdPeriph_Driver/src/stm32f10x_rcc.c **** /* CFGR register byte 4 (Bits[31:24]) base address */
 172:stm32f10x_lib/STM32F10x_StdPeriph_Driver/src/stm32f10x_rcc.c **** #define CFGR_BYTE4_ADDRESS        ((uint32_t)0x40021007)
 173:stm32f10x_lib/STM32F10x_StdPeriph_Driver/src/stm32f10x_rcc.c **** 
 174:stm32f10x_lib/STM32F10x_StdPeriph_Driver/src/stm32f10x_rcc.c **** /* BDCR register base address */
 175:stm32f10x_lib/STM32F10x_StdPeriph_Driver/src/stm32f10x_rcc.c **** #define BDCR_ADDRESS              (PERIPH_BASE + BDCR_OFFSET)
 176:stm32f10x_lib/STM32F10x_StdPeriph_Driver/src/stm32f10x_rcc.c **** 
 177:stm32f10x_lib/STM32F10x_StdPeriph_Driver/src/stm32f10x_rcc.c **** /**
 178:stm32f10x_lib/STM32F10x_StdPeriph_Driver/src/stm32f10x_rcc.c ****   * @}
 179:stm32f10x_lib/STM32F10x_StdPeriph_Driver/src/stm32f10x_rcc.c ****   */ 
 180:stm32f10x_lib/STM32F10x_StdPeriph_Driver/src/stm32f10x_rcc.c **** 
 181:stm32f10x_lib/STM32F10x_StdPeriph_Driver/src/stm32f10x_rcc.c **** /** @defgroup RCC_Private_Macros
 182:stm32f10x_lib/STM32F10x_StdPeriph_Driver/src/stm32f10x_rcc.c ****   * @{
 183:stm32f10x_lib/STM32F10x_StdPeriph_Driver/src/stm32f10x_rcc.c ****   */ 
 184:stm32f10x_lib/STM32F10x_StdPeriph_Driver/src/stm32f10x_rcc.c **** 
 185:stm32f10x_lib/STM32F10x_StdPeriph_Driver/src/stm32f10x_rcc.c **** /**
 186:stm32f10x_lib/STM32F10x_StdPeriph_Driver/src/stm32f10x_rcc.c ****   * @}
 187:stm32f10x_lib/STM32F10x_StdPeriph_Driver/src/stm32f10x_rcc.c ****   */ 
 188:stm32f10x_lib/STM32F10x_StdPeriph_Driver/src/stm32f10x_rcc.c **** 
 189:stm32f10x_lib/STM32F10x_StdPeriph_Driver/src/stm32f10x_rcc.c **** /** @defgroup RCC_Private_Variables
 190:stm32f10x_lib/STM32F10x_StdPeriph_Driver/src/stm32f10x_rcc.c ****   * @{
 191:stm32f10x_lib/STM32F10x_StdPeriph_Driver/src/stm32f10x_rcc.c ****   */ 
 192:stm32f10x_lib/STM32F10x_StdPeriph_Driver/src/stm32f10x_rcc.c **** 
 193:stm32f10x_lib/STM32F10x_StdPeriph_Driver/src/stm32f10x_rcc.c **** static __I uint8_t APBAHBPrescTable[16] = {0, 0, 0, 0, 1, 2, 3, 4, 1, 2, 3, 4, 6, 7, 8, 9};
 194:stm32f10x_lib/STM32F10x_StdPeriph_Driver/src/stm32f10x_rcc.c **** static __I uint8_t ADCPrescTable[4] = {2, 4, 6, 8};
 195:stm32f10x_lib/STM32F10x_StdPeriph_Driver/src/stm32f10x_rcc.c **** 
 196:stm32f10x_lib/STM32F10x_StdPeriph_Driver/src/stm32f10x_rcc.c **** /**
 197:stm32f10x_lib/STM32F10x_StdPeriph_Driver/src/stm32f10x_rcc.c ****   * @}
 198:stm32f10x_lib/STM32F10x_StdPeriph_Driver/src/stm32f10x_rcc.c ****   */
 199:stm32f10x_lib/STM32F10x_StdPeriph_Driver/src/stm32f10x_rcc.c **** 
ARM GAS  /tmp/cc6sR8f9.s 			page 6


 200:stm32f10x_lib/STM32F10x_StdPeriph_Driver/src/stm32f10x_rcc.c **** /** @defgroup RCC_Private_FunctionPrototypes
 201:stm32f10x_lib/STM32F10x_StdPeriph_Driver/src/stm32f10x_rcc.c ****   * @{
 202:stm32f10x_lib/STM32F10x_StdPeriph_Driver/src/stm32f10x_rcc.c ****   */
 203:stm32f10x_lib/STM32F10x_StdPeriph_Driver/src/stm32f10x_rcc.c **** 
 204:stm32f10x_lib/STM32F10x_StdPeriph_Driver/src/stm32f10x_rcc.c **** /**
 205:stm32f10x_lib/STM32F10x_StdPeriph_Driver/src/stm32f10x_rcc.c ****   * @}
 206:stm32f10x_lib/STM32F10x_StdPeriph_Driver/src/stm32f10x_rcc.c ****   */
 207:stm32f10x_lib/STM32F10x_StdPeriph_Driver/src/stm32f10x_rcc.c **** 
 208:stm32f10x_lib/STM32F10x_StdPeriph_Driver/src/stm32f10x_rcc.c **** /** @defgroup RCC_Private_Functions
 209:stm32f10x_lib/STM32F10x_StdPeriph_Driver/src/stm32f10x_rcc.c ****   * @{
 210:stm32f10x_lib/STM32F10x_StdPeriph_Driver/src/stm32f10x_rcc.c ****   */
 211:stm32f10x_lib/STM32F10x_StdPeriph_Driver/src/stm32f10x_rcc.c **** 
 212:stm32f10x_lib/STM32F10x_StdPeriph_Driver/src/stm32f10x_rcc.c **** /**
 213:stm32f10x_lib/STM32F10x_StdPeriph_Driver/src/stm32f10x_rcc.c ****   * @brief  Resets the RCC clock configuration to the default reset state.
 214:stm32f10x_lib/STM32F10x_StdPeriph_Driver/src/stm32f10x_rcc.c ****   * @param  None
 215:stm32f10x_lib/STM32F10x_StdPeriph_Driver/src/stm32f10x_rcc.c ****   * @retval None
 216:stm32f10x_lib/STM32F10x_StdPeriph_Driver/src/stm32f10x_rcc.c ****   */
 217:stm32f10x_lib/STM32F10x_StdPeriph_Driver/src/stm32f10x_rcc.c **** void RCC_DeInit(void)
 218:stm32f10x_lib/STM32F10x_StdPeriph_Driver/src/stm32f10x_rcc.c **** {
  87              		.loc 1 218 1 view -0
  88              		.cfi_startproc
  89              		@ args = 0, pretend = 0, frame = 0
  90              		@ frame_needed = 0, uses_anonymous_args = 0
  91              		@ link register save eliminated.
 219:stm32f10x_lib/STM32F10x_StdPeriph_Driver/src/stm32f10x_rcc.c ****   /* Set HSION bit */
 220:stm32f10x_lib/STM32F10x_StdPeriph_Driver/src/stm32f10x_rcc.c ****   RCC->CR |= (uint32_t)0x00000001;
  92              		.loc 1 220 3 view .LVU1
  93              	@ stm32f10x_lib/STM32F10x_StdPeriph_Driver/src/stm32f10x_rcc.c:220:   RCC->CR |= (uint32_t)0x000000
  94              		.loc 1 220 11 is_stmt 0 view .LVU2
  95 0000 0E4B     		ldr	r3, .L2	@ tmp120,
  96 0002 1A68     		ldr	r2, [r3]	@ _1, MEM[(struct RCC_TypeDef *)1073876992B].CR
  97 0004 42F00102 		orr	r2, r2, #1	@ _2, _1,
  98 0008 1A60     		str	r2, [r3]	@ _2, MEM[(struct RCC_TypeDef *)1073876992B].CR
 221:stm32f10x_lib/STM32F10x_StdPeriph_Driver/src/stm32f10x_rcc.c **** 
 222:stm32f10x_lib/STM32F10x_StdPeriph_Driver/src/stm32f10x_rcc.c ****   /* Reset SW, HPRE, PPRE1, PPRE2, ADCPRE and MCO bits */
 223:stm32f10x_lib/STM32F10x_StdPeriph_Driver/src/stm32f10x_rcc.c **** #ifndef STM32F10X_CL
 224:stm32f10x_lib/STM32F10x_StdPeriph_Driver/src/stm32f10x_rcc.c ****   RCC->CFGR &= (uint32_t)0xF8FF0000;
  99              		.loc 1 224 3 is_stmt 1 view .LVU3
 100              	@ stm32f10x_lib/STM32F10x_StdPeriph_Driver/src/stm32f10x_rcc.c:224:   RCC->CFGR &= (uint32_t)0xF8FF
 101              		.loc 1 224 13 is_stmt 0 view .LVU4
 102 000a 5968     		ldr	r1, [r3, #4]	@ _3, MEM[(struct RCC_TypeDef *)1073876992B].CFGR
 103 000c 0C4A     		ldr	r2, .L2+4	@ _4,
 104 000e 0A40     		ands	r2, r2, r1	@, _4, _4, _3
 105 0010 5A60     		str	r2, [r3, #4]	@ _4, MEM[(struct RCC_TypeDef *)1073876992B].CFGR
 225:stm32f10x_lib/STM32F10x_StdPeriph_Driver/src/stm32f10x_rcc.c **** #else
 226:stm32f10x_lib/STM32F10x_StdPeriph_Driver/src/stm32f10x_rcc.c ****   RCC->CFGR &= (uint32_t)0xF0FF0000;
 227:stm32f10x_lib/STM32F10x_StdPeriph_Driver/src/stm32f10x_rcc.c **** #endif /* STM32F10X_CL */   
 228:stm32f10x_lib/STM32F10x_StdPeriph_Driver/src/stm32f10x_rcc.c ****   
 229:stm32f10x_lib/STM32F10x_StdPeriph_Driver/src/stm32f10x_rcc.c ****   /* Reset HSEON, CSSON and PLLON bits */
 230:stm32f10x_lib/STM32F10x_StdPeriph_Driver/src/stm32f10x_rcc.c ****   RCC->CR &= (uint32_t)0xFEF6FFFF;
 106              		.loc 1 230 3 is_stmt 1 view .LVU5
 107              	@ stm32f10x_lib/STM32F10x_StdPeriph_Driver/src/stm32f10x_rcc.c:230:   RCC->CR &= (uint32_t)0xFEF6FF
 108              		.loc 1 230 11 is_stmt 0 view .LVU6
 109 0012 1A68     		ldr	r2, [r3]	@ _5, MEM[(struct RCC_TypeDef *)1073876992B].CR
 110 0014 22F08472 		bic	r2, r2, #17301504	@ _6, _5,
 111 0018 22F48032 		bic	r2, r2, #65536	@ _6, _6,
 112 001c 1A60     		str	r2, [r3]	@ _6, MEM[(struct RCC_TypeDef *)1073876992B].CR
ARM GAS  /tmp/cc6sR8f9.s 			page 7


 231:stm32f10x_lib/STM32F10x_StdPeriph_Driver/src/stm32f10x_rcc.c **** 
 232:stm32f10x_lib/STM32F10x_StdPeriph_Driver/src/stm32f10x_rcc.c ****   /* Reset HSEBYP bit */
 233:stm32f10x_lib/STM32F10x_StdPeriph_Driver/src/stm32f10x_rcc.c ****   RCC->CR &= (uint32_t)0xFFFBFFFF;
 113              		.loc 1 233 3 is_stmt 1 view .LVU7
 114              	@ stm32f10x_lib/STM32F10x_StdPeriph_Driver/src/stm32f10x_rcc.c:233:   RCC->CR &= (uint32_t)0xFFFBFF
 115              		.loc 1 233 11 is_stmt 0 view .LVU8
 116 001e 1A68     		ldr	r2, [r3]	@ _7, MEM[(struct RCC_TypeDef *)1073876992B].CR
 117 0020 22F48022 		bic	r2, r2, #262144	@ _8, _7,
 118 0024 1A60     		str	r2, [r3]	@ _8, MEM[(struct RCC_TypeDef *)1073876992B].CR
 234:stm32f10x_lib/STM32F10x_StdPeriph_Driver/src/stm32f10x_rcc.c **** 
 235:stm32f10x_lib/STM32F10x_StdPeriph_Driver/src/stm32f10x_rcc.c ****   /* Reset PLLSRC, PLLXTPRE, PLLMUL and USBPRE/OTGFSPRE bits */
 236:stm32f10x_lib/STM32F10x_StdPeriph_Driver/src/stm32f10x_rcc.c ****   RCC->CFGR &= (uint32_t)0xFF80FFFF;
 119              		.loc 1 236 3 is_stmt 1 view .LVU9
 120              	@ stm32f10x_lib/STM32F10x_StdPeriph_Driver/src/stm32f10x_rcc.c:236:   RCC->CFGR &= (uint32_t)0xFF80
 121              		.loc 1 236 13 is_stmt 0 view .LVU10
 122 0026 5A68     		ldr	r2, [r3, #4]	@ _9, MEM[(struct RCC_TypeDef *)1073876992B].CFGR
 123 0028 22F4FE02 		bic	r2, r2, #8323072	@ _10, _9,
 124 002c 5A60     		str	r2, [r3, #4]	@ _10, MEM[(struct RCC_TypeDef *)1073876992B].CFGR
 237:stm32f10x_lib/STM32F10x_StdPeriph_Driver/src/stm32f10x_rcc.c **** 
 238:stm32f10x_lib/STM32F10x_StdPeriph_Driver/src/stm32f10x_rcc.c **** #ifdef STM32F10X_CL
 239:stm32f10x_lib/STM32F10x_StdPeriph_Driver/src/stm32f10x_rcc.c ****   /* Reset PLL2ON and PLL3ON bits */
 240:stm32f10x_lib/STM32F10x_StdPeriph_Driver/src/stm32f10x_rcc.c ****   RCC->CR &= (uint32_t)0xEBFFFFFF;
 241:stm32f10x_lib/STM32F10x_StdPeriph_Driver/src/stm32f10x_rcc.c **** 
 242:stm32f10x_lib/STM32F10x_StdPeriph_Driver/src/stm32f10x_rcc.c ****   /* Disable all interrupts and clear pending bits  */
 243:stm32f10x_lib/STM32F10x_StdPeriph_Driver/src/stm32f10x_rcc.c ****   RCC->CIR = 0x00FF0000;
 244:stm32f10x_lib/STM32F10x_StdPeriph_Driver/src/stm32f10x_rcc.c **** 
 245:stm32f10x_lib/STM32F10x_StdPeriph_Driver/src/stm32f10x_rcc.c ****   /* Reset CFGR2 register */
 246:stm32f10x_lib/STM32F10x_StdPeriph_Driver/src/stm32f10x_rcc.c ****   RCC->CFGR2 = 0x00000000;
 247:stm32f10x_lib/STM32F10x_StdPeriph_Driver/src/stm32f10x_rcc.c **** #elif defined (STM32F10X_LD_VL) || defined (STM32F10X_MD_VL) || defined (STM32F10X_HD_VL)
 248:stm32f10x_lib/STM32F10x_StdPeriph_Driver/src/stm32f10x_rcc.c ****   /* Disable all interrupts and clear pending bits  */
 249:stm32f10x_lib/STM32F10x_StdPeriph_Driver/src/stm32f10x_rcc.c ****   RCC->CIR = 0x009F0000;
 125              		.loc 1 249 3 is_stmt 1 view .LVU11
 126              	@ stm32f10x_lib/STM32F10x_StdPeriph_Driver/src/stm32f10x_rcc.c:249:   RCC->CIR = 0x009F0000;
 127              		.loc 1 249 12 is_stmt 0 view .LVU12
 128 002e 4FF41F02 		mov	r2, #10420224	@ tmp133,
 129 0032 9A60     		str	r2, [r3, #8]	@ tmp133, MEM[(struct RCC_TypeDef *)1073876992B].CIR
 250:stm32f10x_lib/STM32F10x_StdPeriph_Driver/src/stm32f10x_rcc.c **** 
 251:stm32f10x_lib/STM32F10x_StdPeriph_Driver/src/stm32f10x_rcc.c ****   /* Reset CFGR2 register */
 252:stm32f10x_lib/STM32F10x_StdPeriph_Driver/src/stm32f10x_rcc.c ****   RCC->CFGR2 = 0x00000000;      
 130              		.loc 1 252 3 is_stmt 1 view .LVU13
 131              	@ stm32f10x_lib/STM32F10x_StdPeriph_Driver/src/stm32f10x_rcc.c:252:   RCC->CFGR2 = 0x00000000;     
 132              		.loc 1 252 14 is_stmt 0 view .LVU14
 133 0034 0022     		movs	r2, #0	@ tmp135,
 134 0036 DA62     		str	r2, [r3, #44]	@ tmp135, MEM[(struct RCC_TypeDef *)1073876992B].CFGR2
 135              	@ stm32f10x_lib/STM32F10x_StdPeriph_Driver/src/stm32f10x_rcc.c:258: }
 253:stm32f10x_lib/STM32F10x_StdPeriph_Driver/src/stm32f10x_rcc.c **** #else
 254:stm32f10x_lib/STM32F10x_StdPeriph_Driver/src/stm32f10x_rcc.c ****   /* Disable all interrupts and clear pending bits  */
 255:stm32f10x_lib/STM32F10x_StdPeriph_Driver/src/stm32f10x_rcc.c ****   RCC->CIR = 0x009F0000;
 256:stm32f10x_lib/STM32F10x_StdPeriph_Driver/src/stm32f10x_rcc.c **** #endif /* STM32F10X_CL */
 257:stm32f10x_lib/STM32F10x_StdPeriph_Driver/src/stm32f10x_rcc.c **** 
 258:stm32f10x_lib/STM32F10x_StdPeriph_Driver/src/stm32f10x_rcc.c **** }
 136              		.loc 1 258 1 view .LVU15
 137 0038 7047     		bx	lr	@
 138              	.L3:
 139 003a 00BF     		.align	2
 140              	.L2:
 141 003c 00100240 		.word	1073876992
ARM GAS  /tmp/cc6sR8f9.s 			page 8


 142 0040 0000FFF8 		.word	-117506048
 143              		.cfi_endproc
 144              	.LFE29:
 145              		.size	RCC_DeInit, .-RCC_DeInit
 146              		.align	1
 147              		.global	RCC_HSEConfig
 148              		.syntax unified
 149              		.thumb
 150              		.thumb_func
 151              		.fpu softvfp
 152              		.type	RCC_HSEConfig, %function
 153              	RCC_HSEConfig:
 154              	.LVL0:
 155              	.LFB30:
 259:stm32f10x_lib/STM32F10x_StdPeriph_Driver/src/stm32f10x_rcc.c **** 
 260:stm32f10x_lib/STM32F10x_StdPeriph_Driver/src/stm32f10x_rcc.c **** /**
 261:stm32f10x_lib/STM32F10x_StdPeriph_Driver/src/stm32f10x_rcc.c ****   * @brief  Configures the External High Speed oscillator (HSE).
 262:stm32f10x_lib/STM32F10x_StdPeriph_Driver/src/stm32f10x_rcc.c ****   * @note   HSE can not be stopped if it is used directly or through the PLL as system clock.
 263:stm32f10x_lib/STM32F10x_StdPeriph_Driver/src/stm32f10x_rcc.c ****   * @param  RCC_HSE: specifies the new state of the HSE.
 264:stm32f10x_lib/STM32F10x_StdPeriph_Driver/src/stm32f10x_rcc.c ****   *   This parameter can be one of the following values:
 265:stm32f10x_lib/STM32F10x_StdPeriph_Driver/src/stm32f10x_rcc.c ****   *     @arg RCC_HSE_OFF: HSE oscillator OFF
 266:stm32f10x_lib/STM32F10x_StdPeriph_Driver/src/stm32f10x_rcc.c ****   *     @arg RCC_HSE_ON: HSE oscillator ON
 267:stm32f10x_lib/STM32F10x_StdPeriph_Driver/src/stm32f10x_rcc.c ****   *     @arg RCC_HSE_Bypass: HSE oscillator bypassed with external clock
 268:stm32f10x_lib/STM32F10x_StdPeriph_Driver/src/stm32f10x_rcc.c ****   * @retval None
 269:stm32f10x_lib/STM32F10x_StdPeriph_Driver/src/stm32f10x_rcc.c ****   */
 270:stm32f10x_lib/STM32F10x_StdPeriph_Driver/src/stm32f10x_rcc.c **** void RCC_HSEConfig(uint32_t RCC_HSE)
 271:stm32f10x_lib/STM32F10x_StdPeriph_Driver/src/stm32f10x_rcc.c **** {
 156              		.loc 1 271 1 is_stmt 1 view -0
 157              		.cfi_startproc
 158              		@ args = 0, pretend = 0, frame = 0
 159              		@ frame_needed = 0, uses_anonymous_args = 0
 160              		@ link register save eliminated.
 272:stm32f10x_lib/STM32F10x_StdPeriph_Driver/src/stm32f10x_rcc.c ****   /* Check the parameters */
 273:stm32f10x_lib/STM32F10x_StdPeriph_Driver/src/stm32f10x_rcc.c ****   assert_param(IS_RCC_HSE(RCC_HSE));
 161              		.loc 1 273 3 view .LVU17
 274:stm32f10x_lib/STM32F10x_StdPeriph_Driver/src/stm32f10x_rcc.c ****   /* Reset HSEON and HSEBYP bits before configuring the HSE ------------------*/
 275:stm32f10x_lib/STM32F10x_StdPeriph_Driver/src/stm32f10x_rcc.c ****   /* Reset HSEON bit */
 276:stm32f10x_lib/STM32F10x_StdPeriph_Driver/src/stm32f10x_rcc.c ****   RCC->CR &= CR_HSEON_Reset;
 162              		.loc 1 276 3 view .LVU18
 163              	@ stm32f10x_lib/STM32F10x_StdPeriph_Driver/src/stm32f10x_rcc.c:276:   RCC->CR &= CR_HSEON_Reset;
 164              		.loc 1 276 11 is_stmt 0 view .LVU19
 165 0044 0C4B     		ldr	r3, .L9	@ tmp119,
 166              	@ stm32f10x_lib/STM32F10x_StdPeriph_Driver/src/stm32f10x_rcc.c:280:   switch(RCC_HSE)
 277:stm32f10x_lib/STM32F10x_StdPeriph_Driver/src/stm32f10x_rcc.c ****   /* Reset HSEBYP bit */
 278:stm32f10x_lib/STM32F10x_StdPeriph_Driver/src/stm32f10x_rcc.c ****   RCC->CR &= CR_HSEBYP_Reset;
 279:stm32f10x_lib/STM32F10x_StdPeriph_Driver/src/stm32f10x_rcc.c ****   /* Configure HSE (RCC_HSE_OFF is already covered by the code section above) */
 280:stm32f10x_lib/STM32F10x_StdPeriph_Driver/src/stm32f10x_rcc.c ****   switch(RCC_HSE)
 167              		.loc 1 280 3 view .LVU20
 168 0046 B0F5803F 		cmp	r0, #65536	@ RCC_HSE,
 169              	@ stm32f10x_lib/STM32F10x_StdPeriph_Driver/src/stm32f10x_rcc.c:276:   RCC->CR &= CR_HSEON_Reset;
 276:stm32f10x_lib/STM32F10x_StdPeriph_Driver/src/stm32f10x_rcc.c ****   /* Reset HSEBYP bit */
 170              		.loc 1 276 11 view .LVU21
 171 004a 1A68     		ldr	r2, [r3]	@ _1, MEM[(struct RCC_TypeDef *)1073876992B].CR
 172 004c 22F48032 		bic	r2, r2, #65536	@ _2, _1,
 173 0050 1A60     		str	r2, [r3]	@ _2, MEM[(struct RCC_TypeDef *)1073876992B].CR
 278:stm32f10x_lib/STM32F10x_StdPeriph_Driver/src/stm32f10x_rcc.c ****   /* Configure HSE (RCC_HSE_OFF is already covered by the code section above) */
 174              		.loc 1 278 3 is_stmt 1 view .LVU22
ARM GAS  /tmp/cc6sR8f9.s 			page 9


 175              	@ stm32f10x_lib/STM32F10x_StdPeriph_Driver/src/stm32f10x_rcc.c:278:   RCC->CR &= CR_HSEBYP_Reset;
 278:stm32f10x_lib/STM32F10x_StdPeriph_Driver/src/stm32f10x_rcc.c ****   /* Configure HSE (RCC_HSE_OFF is already covered by the code section above) */
 176              		.loc 1 278 11 is_stmt 0 view .LVU23
 177 0052 1A68     		ldr	r2, [r3]	@ _3, MEM[(struct RCC_TypeDef *)1073876992B].CR
 178 0054 22F48022 		bic	r2, r2, #262144	@ _4, _3,
 179 0058 1A60     		str	r2, [r3]	@ _4, MEM[(struct RCC_TypeDef *)1073876992B].CR
 180              		.loc 1 280 3 is_stmt 1 view .LVU24
 181 005a 03D0     		beq	.L5		@,
 182 005c B0F5802F 		cmp	r0, #262144	@ RCC_HSE,
 183 0060 05D0     		beq	.L6		@,
 184 0062 7047     		bx	lr	@
 185              	.L5:
 281:stm32f10x_lib/STM32F10x_StdPeriph_Driver/src/stm32f10x_rcc.c ****   {
 282:stm32f10x_lib/STM32F10x_StdPeriph_Driver/src/stm32f10x_rcc.c ****     case RCC_HSE_ON:
 283:stm32f10x_lib/STM32F10x_StdPeriph_Driver/src/stm32f10x_rcc.c ****       /* Set HSEON bit */
 284:stm32f10x_lib/STM32F10x_StdPeriph_Driver/src/stm32f10x_rcc.c ****       RCC->CR |= CR_HSEON_Set;
 186              		.loc 1 284 7 view .LVU25
 187              	@ stm32f10x_lib/STM32F10x_StdPeriph_Driver/src/stm32f10x_rcc.c:284:       RCC->CR |= CR_HSEON_Set;
 188              		.loc 1 284 15 is_stmt 0 view .LVU26
 189 0064 1A68     		ldr	r2, [r3]	@ _5, MEM[(struct RCC_TypeDef *)1073876992B].CR
 190 0066 42F48032 		orr	r2, r2, #65536	@ _6, _5,
 191              	.L8:
 192              	@ stm32f10x_lib/STM32F10x_StdPeriph_Driver/src/stm32f10x_rcc.c:289:       RCC->CR |= CR_HSEBYP_Set 
 285:stm32f10x_lib/STM32F10x_StdPeriph_Driver/src/stm32f10x_rcc.c ****       break;
 286:stm32f10x_lib/STM32F10x_StdPeriph_Driver/src/stm32f10x_rcc.c ****       
 287:stm32f10x_lib/STM32F10x_StdPeriph_Driver/src/stm32f10x_rcc.c ****     case RCC_HSE_Bypass:
 288:stm32f10x_lib/STM32F10x_StdPeriph_Driver/src/stm32f10x_rcc.c ****       /* Set HSEBYP and HSEON bits */
 289:stm32f10x_lib/STM32F10x_StdPeriph_Driver/src/stm32f10x_rcc.c ****       RCC->CR |= CR_HSEBYP_Set | CR_HSEON_Set;
 193              		.loc 1 289 15 view .LVU27
 194 006a 1A60     		str	r2, [r3]	@ _8,
 290:stm32f10x_lib/STM32F10x_StdPeriph_Driver/src/stm32f10x_rcc.c ****       break;
 195              		.loc 1 290 7 is_stmt 1 view .LVU28
 196              	@ stm32f10x_lib/STM32F10x_StdPeriph_Driver/src/stm32f10x_rcc.c:295: }
 291:stm32f10x_lib/STM32F10x_StdPeriph_Driver/src/stm32f10x_rcc.c ****       
 292:stm32f10x_lib/STM32F10x_StdPeriph_Driver/src/stm32f10x_rcc.c ****     default:
 293:stm32f10x_lib/STM32F10x_StdPeriph_Driver/src/stm32f10x_rcc.c ****       break;
 294:stm32f10x_lib/STM32F10x_StdPeriph_Driver/src/stm32f10x_rcc.c ****   }
 295:stm32f10x_lib/STM32F10x_StdPeriph_Driver/src/stm32f10x_rcc.c **** }
 197              		.loc 1 295 1 is_stmt 0 view .LVU29
 198 006c 7047     		bx	lr	@
 199              	.L6:
 289:stm32f10x_lib/STM32F10x_StdPeriph_Driver/src/stm32f10x_rcc.c ****       break;
 200              		.loc 1 289 7 is_stmt 1 view .LVU30
 201              	@ stm32f10x_lib/STM32F10x_StdPeriph_Driver/src/stm32f10x_rcc.c:289:       RCC->CR |= CR_HSEBYP_Set 
 289:stm32f10x_lib/STM32F10x_StdPeriph_Driver/src/stm32f10x_rcc.c ****       break;
 202              		.loc 1 289 15 is_stmt 0 view .LVU31
 203 006e 1A68     		ldr	r2, [r3]	@ _7, MEM[(struct RCC_TypeDef *)1073876992B].CR
 204 0070 42F4A022 		orr	r2, r2, #327680	@ _8, _7,
 205 0074 F9E7     		b	.L8		@
 206              	.L10:
 207 0076 00BF     		.align	2
 208              	.L9:
 209 0078 00100240 		.word	1073876992
 210              		.cfi_endproc
 211              	.LFE30:
 212              		.size	RCC_HSEConfig, .-RCC_HSEConfig
 213              		.align	1
ARM GAS  /tmp/cc6sR8f9.s 			page 10


 214              		.global	RCC_AdjustHSICalibrationValue
 215              		.syntax unified
 216              		.thumb
 217              		.thumb_func
 218              		.fpu softvfp
 219              		.type	RCC_AdjustHSICalibrationValue, %function
 220              	RCC_AdjustHSICalibrationValue:
 221              	.LVL1:
 222              	.LFB32:
 296:stm32f10x_lib/STM32F10x_StdPeriph_Driver/src/stm32f10x_rcc.c **** 
 297:stm32f10x_lib/STM32F10x_StdPeriph_Driver/src/stm32f10x_rcc.c **** /**
 298:stm32f10x_lib/STM32F10x_StdPeriph_Driver/src/stm32f10x_rcc.c ****   * @brief  Waits for HSE start-up.
 299:stm32f10x_lib/STM32F10x_StdPeriph_Driver/src/stm32f10x_rcc.c ****   * @param  None
 300:stm32f10x_lib/STM32F10x_StdPeriph_Driver/src/stm32f10x_rcc.c ****   * @retval An ErrorStatus enumuration value:
 301:stm32f10x_lib/STM32F10x_StdPeriph_Driver/src/stm32f10x_rcc.c ****   * - SUCCESS: HSE oscillator is stable and ready to use
 302:stm32f10x_lib/STM32F10x_StdPeriph_Driver/src/stm32f10x_rcc.c ****   * - ERROR: HSE oscillator not yet ready
 303:stm32f10x_lib/STM32F10x_StdPeriph_Driver/src/stm32f10x_rcc.c ****   */
 304:stm32f10x_lib/STM32F10x_StdPeriph_Driver/src/stm32f10x_rcc.c **** ErrorStatus RCC_WaitForHSEStartUp(void)
 305:stm32f10x_lib/STM32F10x_StdPeriph_Driver/src/stm32f10x_rcc.c **** {
 306:stm32f10x_lib/STM32F10x_StdPeriph_Driver/src/stm32f10x_rcc.c ****   __IO uint32_t StartUpCounter = 0;
 307:stm32f10x_lib/STM32F10x_StdPeriph_Driver/src/stm32f10x_rcc.c ****   ErrorStatus status = ERROR;
 308:stm32f10x_lib/STM32F10x_StdPeriph_Driver/src/stm32f10x_rcc.c ****   FlagStatus HSEStatus = RESET;
 309:stm32f10x_lib/STM32F10x_StdPeriph_Driver/src/stm32f10x_rcc.c ****   
 310:stm32f10x_lib/STM32F10x_StdPeriph_Driver/src/stm32f10x_rcc.c ****   /* Wait till HSE is ready and if Time out is reached exit */
 311:stm32f10x_lib/STM32F10x_StdPeriph_Driver/src/stm32f10x_rcc.c ****   do
 312:stm32f10x_lib/STM32F10x_StdPeriph_Driver/src/stm32f10x_rcc.c ****   {
 313:stm32f10x_lib/STM32F10x_StdPeriph_Driver/src/stm32f10x_rcc.c ****     HSEStatus = RCC_GetFlagStatus(RCC_FLAG_HSERDY);
 314:stm32f10x_lib/STM32F10x_StdPeriph_Driver/src/stm32f10x_rcc.c ****     StartUpCounter++;  
 315:stm32f10x_lib/STM32F10x_StdPeriph_Driver/src/stm32f10x_rcc.c ****   } while((StartUpCounter != HSE_STARTUP_TIMEOUT) && (HSEStatus == RESET));
 316:stm32f10x_lib/STM32F10x_StdPeriph_Driver/src/stm32f10x_rcc.c ****   
 317:stm32f10x_lib/STM32F10x_StdPeriph_Driver/src/stm32f10x_rcc.c ****   if (RCC_GetFlagStatus(RCC_FLAG_HSERDY) != RESET)
 318:stm32f10x_lib/STM32F10x_StdPeriph_Driver/src/stm32f10x_rcc.c ****   {
 319:stm32f10x_lib/STM32F10x_StdPeriph_Driver/src/stm32f10x_rcc.c ****     status = SUCCESS;
 320:stm32f10x_lib/STM32F10x_StdPeriph_Driver/src/stm32f10x_rcc.c ****   }
 321:stm32f10x_lib/STM32F10x_StdPeriph_Driver/src/stm32f10x_rcc.c ****   else
 322:stm32f10x_lib/STM32F10x_StdPeriph_Driver/src/stm32f10x_rcc.c ****   {
 323:stm32f10x_lib/STM32F10x_StdPeriph_Driver/src/stm32f10x_rcc.c ****     status = ERROR;
 324:stm32f10x_lib/STM32F10x_StdPeriph_Driver/src/stm32f10x_rcc.c ****   }  
 325:stm32f10x_lib/STM32F10x_StdPeriph_Driver/src/stm32f10x_rcc.c ****   return (status);
 326:stm32f10x_lib/STM32F10x_StdPeriph_Driver/src/stm32f10x_rcc.c **** }
 327:stm32f10x_lib/STM32F10x_StdPeriph_Driver/src/stm32f10x_rcc.c **** 
 328:stm32f10x_lib/STM32F10x_StdPeriph_Driver/src/stm32f10x_rcc.c **** /**
 329:stm32f10x_lib/STM32F10x_StdPeriph_Driver/src/stm32f10x_rcc.c ****   * @brief  Adjusts the Internal High Speed oscillator (HSI) calibration value.
 330:stm32f10x_lib/STM32F10x_StdPeriph_Driver/src/stm32f10x_rcc.c ****   * @param  HSICalibrationValue: specifies the calibration trimming value.
 331:stm32f10x_lib/STM32F10x_StdPeriph_Driver/src/stm32f10x_rcc.c ****   *   This parameter must be a number between 0 and 0x1F.
 332:stm32f10x_lib/STM32F10x_StdPeriph_Driver/src/stm32f10x_rcc.c ****   * @retval None
 333:stm32f10x_lib/STM32F10x_StdPeriph_Driver/src/stm32f10x_rcc.c ****   */
 334:stm32f10x_lib/STM32F10x_StdPeriph_Driver/src/stm32f10x_rcc.c **** void RCC_AdjustHSICalibrationValue(uint8_t HSICalibrationValue)
 335:stm32f10x_lib/STM32F10x_StdPeriph_Driver/src/stm32f10x_rcc.c **** {
 223              		.loc 1 335 1 is_stmt 1 view -0
 224              		.cfi_startproc
 225              		@ args = 0, pretend = 0, frame = 0
 226              		@ frame_needed = 0, uses_anonymous_args = 0
 227              		@ link register save eliminated.
 336:stm32f10x_lib/STM32F10x_StdPeriph_Driver/src/stm32f10x_rcc.c ****   uint32_t tmpreg = 0;
 228              		.loc 1 336 3 view .LVU33
 337:stm32f10x_lib/STM32F10x_StdPeriph_Driver/src/stm32f10x_rcc.c ****   /* Check the parameters */
ARM GAS  /tmp/cc6sR8f9.s 			page 11


 338:stm32f10x_lib/STM32F10x_StdPeriph_Driver/src/stm32f10x_rcc.c ****   assert_param(IS_RCC_CALIBRATION_VALUE(HSICalibrationValue));
 229              		.loc 1 338 3 view .LVU34
 339:stm32f10x_lib/STM32F10x_StdPeriph_Driver/src/stm32f10x_rcc.c ****   tmpreg = RCC->CR;
 230              		.loc 1 339 3 view .LVU35
 231              	@ stm32f10x_lib/STM32F10x_StdPeriph_Driver/src/stm32f10x_rcc.c:339:   tmpreg = RCC->CR;
 232              		.loc 1 339 10 is_stmt 0 view .LVU36
 233 007c 034A     		ldr	r2, .L12	@ tmp116,
 234 007e 1368     		ldr	r3, [r2]	@ tmpreg, MEM[(struct RCC_TypeDef *)1073876992B].CR
 235              	.LVL2:
 340:stm32f10x_lib/STM32F10x_StdPeriph_Driver/src/stm32f10x_rcc.c ****   /* Clear HSITRIM[4:0] bits */
 341:stm32f10x_lib/STM32F10x_StdPeriph_Driver/src/stm32f10x_rcc.c ****   tmpreg &= CR_HSITRIM_Mask;
 236              		.loc 1 341 3 is_stmt 1 view .LVU37
 237              	@ stm32f10x_lib/STM32F10x_StdPeriph_Driver/src/stm32f10x_rcc.c:341:   tmpreg &= CR_HSITRIM_Mask;
 238              		.loc 1 341 10 is_stmt 0 view .LVU38
 239 0080 23F0F803 		bic	r3, r3, #248	@ tmpreg, tmpreg,
 240              	.LVL3:
 342:stm32f10x_lib/STM32F10x_StdPeriph_Driver/src/stm32f10x_rcc.c ****   /* Set the HSITRIM[4:0] bits according to HSICalibrationValue value */
 343:stm32f10x_lib/STM32F10x_StdPeriph_Driver/src/stm32f10x_rcc.c ****   tmpreg |= (uint32_t)HSICalibrationValue << 3;
 241              		.loc 1 343 3 is_stmt 1 view .LVU39
 242              	@ stm32f10x_lib/STM32F10x_StdPeriph_Driver/src/stm32f10x_rcc.c:343:   tmpreg |= (uint32_t)HSICalibr
 243              		.loc 1 343 10 is_stmt 0 view .LVU40
 244 0084 43EAC003 		orr	r3, r3, r0, lsl #3	@ tmpreg, tmpreg, tmp119,
 245              	.LVL4:
 344:stm32f10x_lib/STM32F10x_StdPeriph_Driver/src/stm32f10x_rcc.c ****   /* Store the new value */
 345:stm32f10x_lib/STM32F10x_StdPeriph_Driver/src/stm32f10x_rcc.c ****   RCC->CR = tmpreg;
 246              		.loc 1 345 3 is_stmt 1 view .LVU41
 247              	@ stm32f10x_lib/STM32F10x_StdPeriph_Driver/src/stm32f10x_rcc.c:345:   RCC->CR = tmpreg;
 248              		.loc 1 345 11 is_stmt 0 view .LVU42
 249 0088 1360     		str	r3, [r2]	@ tmpreg, MEM[(struct RCC_TypeDef *)1073876992B].CR
 250              	@ stm32f10x_lib/STM32F10x_StdPeriph_Driver/src/stm32f10x_rcc.c:346: }
 346:stm32f10x_lib/STM32F10x_StdPeriph_Driver/src/stm32f10x_rcc.c **** }
 251              		.loc 1 346 1 view .LVU43
 252 008a 7047     		bx	lr	@
 253              	.L13:
 254              		.align	2
 255              	.L12:
 256 008c 00100240 		.word	1073876992
 257              		.cfi_endproc
 258              	.LFE32:
 259              		.size	RCC_AdjustHSICalibrationValue, .-RCC_AdjustHSICalibrationValue
 260              		.align	1
 261              		.global	RCC_HSICmd
 262              		.syntax unified
 263              		.thumb
 264              		.thumb_func
 265              		.fpu softvfp
 266              		.type	RCC_HSICmd, %function
 267              	RCC_HSICmd:
 268              	.LVL5:
 269              	.LFB33:
 347:stm32f10x_lib/STM32F10x_StdPeriph_Driver/src/stm32f10x_rcc.c **** 
 348:stm32f10x_lib/STM32F10x_StdPeriph_Driver/src/stm32f10x_rcc.c **** /**
 349:stm32f10x_lib/STM32F10x_StdPeriph_Driver/src/stm32f10x_rcc.c ****   * @brief  Enables or disables the Internal High Speed oscillator (HSI).
 350:stm32f10x_lib/STM32F10x_StdPeriph_Driver/src/stm32f10x_rcc.c ****   * @note   HSI can not be stopped if it is used directly or through the PLL as system clock.
 351:stm32f10x_lib/STM32F10x_StdPeriph_Driver/src/stm32f10x_rcc.c ****   * @param  NewState: new state of the HSI. This parameter can be: ENABLE or DISABLE.
 352:stm32f10x_lib/STM32F10x_StdPeriph_Driver/src/stm32f10x_rcc.c ****   * @retval None
 353:stm32f10x_lib/STM32F10x_StdPeriph_Driver/src/stm32f10x_rcc.c ****   */
ARM GAS  /tmp/cc6sR8f9.s 			page 12


 354:stm32f10x_lib/STM32F10x_StdPeriph_Driver/src/stm32f10x_rcc.c **** void RCC_HSICmd(FunctionalState NewState)
 355:stm32f10x_lib/STM32F10x_StdPeriph_Driver/src/stm32f10x_rcc.c **** {
 270              		.loc 1 355 1 is_stmt 1 view -0
 271              		.cfi_startproc
 272              		@ args = 0, pretend = 0, frame = 0
 273              		@ frame_needed = 0, uses_anonymous_args = 0
 274              		@ link register save eliminated.
 356:stm32f10x_lib/STM32F10x_StdPeriph_Driver/src/stm32f10x_rcc.c ****   /* Check the parameters */
 357:stm32f10x_lib/STM32F10x_StdPeriph_Driver/src/stm32f10x_rcc.c ****   assert_param(IS_FUNCTIONAL_STATE(NewState));
 275              		.loc 1 357 3 view .LVU45
 358:stm32f10x_lib/STM32F10x_StdPeriph_Driver/src/stm32f10x_rcc.c ****   *(__IO uint32_t *) CR_HSION_BB = (uint32_t)NewState;
 276              		.loc 1 358 3 view .LVU46
 277              	@ stm32f10x_lib/STM32F10x_StdPeriph_Driver/src/stm32f10x_rcc.c:358:   *(__IO uint32_t *) CR_HSION_B
 278              		.loc 1 358 34 is_stmt 0 view .LVU47
 279 0090 014B     		ldr	r3, .L15	@ tmp112,
 280 0092 1860     		str	r0, [r3]	@ NewState, MEM[(volatile uint32_t *)1111621632B]
 281              	@ stm32f10x_lib/STM32F10x_StdPeriph_Driver/src/stm32f10x_rcc.c:359: }
 359:stm32f10x_lib/STM32F10x_StdPeriph_Driver/src/stm32f10x_rcc.c **** }
 282              		.loc 1 359 1 view .LVU48
 283 0094 7047     		bx	lr	@
 284              	.L16:
 285 0096 00BF     		.align	2
 286              	.L15:
 287 0098 00004242 		.word	1111621632
 288              		.cfi_endproc
 289              	.LFE33:
 290              		.size	RCC_HSICmd, .-RCC_HSICmd
 291              		.align	1
 292              		.global	RCC_PLLConfig
 293              		.syntax unified
 294              		.thumb
 295              		.thumb_func
 296              		.fpu softvfp
 297              		.type	RCC_PLLConfig, %function
 298              	RCC_PLLConfig:
 299              	.LVL6:
 300              	.LFB34:
 360:stm32f10x_lib/STM32F10x_StdPeriph_Driver/src/stm32f10x_rcc.c **** 
 361:stm32f10x_lib/STM32F10x_StdPeriph_Driver/src/stm32f10x_rcc.c **** /**
 362:stm32f10x_lib/STM32F10x_StdPeriph_Driver/src/stm32f10x_rcc.c ****   * @brief  Configures the PLL clock source and multiplication factor.
 363:stm32f10x_lib/STM32F10x_StdPeriph_Driver/src/stm32f10x_rcc.c ****   * @note   This function must be used only when the PLL is disabled.
 364:stm32f10x_lib/STM32F10x_StdPeriph_Driver/src/stm32f10x_rcc.c ****   * @param  RCC_PLLSource: specifies the PLL entry clock source.
 365:stm32f10x_lib/STM32F10x_StdPeriph_Driver/src/stm32f10x_rcc.c ****   *   For @b STM32_Connectivity_line_devices or @b STM32_Value_line_devices, 
 366:stm32f10x_lib/STM32F10x_StdPeriph_Driver/src/stm32f10x_rcc.c ****   *   this parameter can be one of the following values:
 367:stm32f10x_lib/STM32F10x_StdPeriph_Driver/src/stm32f10x_rcc.c ****   *     @arg RCC_PLLSource_HSI_Div2: HSI oscillator clock divided by 2 selected as PLL clock entry
 368:stm32f10x_lib/STM32F10x_StdPeriph_Driver/src/stm32f10x_rcc.c ****   *     @arg RCC_PLLSource_PREDIV1: PREDIV1 clock selected as PLL clock entry
 369:stm32f10x_lib/STM32F10x_StdPeriph_Driver/src/stm32f10x_rcc.c ****   *   For @b other_STM32_devices, this parameter can be one of the following values:
 370:stm32f10x_lib/STM32F10x_StdPeriph_Driver/src/stm32f10x_rcc.c ****   *     @arg RCC_PLLSource_HSI_Div2: HSI oscillator clock divided by 2 selected as PLL clock entry
 371:stm32f10x_lib/STM32F10x_StdPeriph_Driver/src/stm32f10x_rcc.c ****   *     @arg RCC_PLLSource_HSE_Div1: HSE oscillator clock selected as PLL clock entry
 372:stm32f10x_lib/STM32F10x_StdPeriph_Driver/src/stm32f10x_rcc.c ****   *     @arg RCC_PLLSource_HSE_Div2: HSE oscillator clock divided by 2 selected as PLL clock entry 
 373:stm32f10x_lib/STM32F10x_StdPeriph_Driver/src/stm32f10x_rcc.c ****   * @param  RCC_PLLMul: specifies the PLL multiplication factor.
 374:stm32f10x_lib/STM32F10x_StdPeriph_Driver/src/stm32f10x_rcc.c ****   *   For @b STM32_Connectivity_line_devices, this parameter can be RCC_PLLMul_x where x:{[4,9], 6_
 375:stm32f10x_lib/STM32F10x_StdPeriph_Driver/src/stm32f10x_rcc.c ****   *   For @b other_STM32_devices, this parameter can be RCC_PLLMul_x where x:[2,16]  
 376:stm32f10x_lib/STM32F10x_StdPeriph_Driver/src/stm32f10x_rcc.c ****   * @retval None
 377:stm32f10x_lib/STM32F10x_StdPeriph_Driver/src/stm32f10x_rcc.c ****   */
 378:stm32f10x_lib/STM32F10x_StdPeriph_Driver/src/stm32f10x_rcc.c **** void RCC_PLLConfig(uint32_t RCC_PLLSource, uint32_t RCC_PLLMul)
 379:stm32f10x_lib/STM32F10x_StdPeriph_Driver/src/stm32f10x_rcc.c **** {
ARM GAS  /tmp/cc6sR8f9.s 			page 13


 301              		.loc 1 379 1 is_stmt 1 view -0
 302              		.cfi_startproc
 303              		@ args = 0, pretend = 0, frame = 0
 304              		@ frame_needed = 0, uses_anonymous_args = 0
 305              		@ link register save eliminated.
 380:stm32f10x_lib/STM32F10x_StdPeriph_Driver/src/stm32f10x_rcc.c ****   uint32_t tmpreg = 0;
 306              		.loc 1 380 3 view .LVU50
 381:stm32f10x_lib/STM32F10x_StdPeriph_Driver/src/stm32f10x_rcc.c **** 
 382:stm32f10x_lib/STM32F10x_StdPeriph_Driver/src/stm32f10x_rcc.c ****   /* Check the parameters */
 383:stm32f10x_lib/STM32F10x_StdPeriph_Driver/src/stm32f10x_rcc.c ****   assert_param(IS_RCC_PLL_SOURCE(RCC_PLLSource));
 307              		.loc 1 383 3 view .LVU51
 384:stm32f10x_lib/STM32F10x_StdPeriph_Driver/src/stm32f10x_rcc.c ****   assert_param(IS_RCC_PLL_MUL(RCC_PLLMul));
 308              		.loc 1 384 3 view .LVU52
 385:stm32f10x_lib/STM32F10x_StdPeriph_Driver/src/stm32f10x_rcc.c **** 
 386:stm32f10x_lib/STM32F10x_StdPeriph_Driver/src/stm32f10x_rcc.c ****   tmpreg = RCC->CFGR;
 309              		.loc 1 386 3 view .LVU53
 310              	@ stm32f10x_lib/STM32F10x_StdPeriph_Driver/src/stm32f10x_rcc.c:386:   tmpreg = RCC->CFGR;
 311              		.loc 1 386 10 is_stmt 0 view .LVU54
 312 009c 034A     		ldr	r2, .L18	@ tmp116,
 313 009e 5368     		ldr	r3, [r2, #4]	@ tmpreg, MEM[(struct RCC_TypeDef *)1073876992B].CFGR
 314              	.LVL7:
 387:stm32f10x_lib/STM32F10x_StdPeriph_Driver/src/stm32f10x_rcc.c ****   /* Clear PLLSRC, PLLXTPRE and PLLMUL[3:0] bits */
 388:stm32f10x_lib/STM32F10x_StdPeriph_Driver/src/stm32f10x_rcc.c ****   tmpreg &= CFGR_PLL_Mask;
 315              		.loc 1 388 3 is_stmt 1 view .LVU55
 389:stm32f10x_lib/STM32F10x_StdPeriph_Driver/src/stm32f10x_rcc.c ****   /* Set the PLL configuration bits */
 390:stm32f10x_lib/STM32F10x_StdPeriph_Driver/src/stm32f10x_rcc.c ****   tmpreg |= RCC_PLLSource | RCC_PLLMul;
 316              		.loc 1 390 3 view .LVU56
 317              	@ stm32f10x_lib/STM32F10x_StdPeriph_Driver/src/stm32f10x_rcc.c:388:   tmpreg &= CFGR_PLL_Mask;
 388:stm32f10x_lib/STM32F10x_StdPeriph_Driver/src/stm32f10x_rcc.c ****   /* Set the PLL configuration bits */
 318              		.loc 1 388 10 is_stmt 0 view .LVU57
 319 00a0 23F47413 		bic	r3, r3, #3997696	@ tmpreg, tmpreg,
 320              	.LVL8:
 388:stm32f10x_lib/STM32F10x_StdPeriph_Driver/src/stm32f10x_rcc.c ****   /* Set the PLL configuration bits */
 321              		.loc 1 388 10 view .LVU58
 322 00a4 0B43     		orrs	r3, r3, r1	@, _9, tmpreg, tmp120
 323              	.LVL9:
 324              	@ stm32f10x_lib/STM32F10x_StdPeriph_Driver/src/stm32f10x_rcc.c:390:   tmpreg |= RCC_PLLSource | RCC
 325              		.loc 1 390 10 view .LVU59
 326 00a6 0343     		orrs	r3, r3, r0	@, tmpreg, _9, tmp119
 327              	.LVL10:
 391:stm32f10x_lib/STM32F10x_StdPeriph_Driver/src/stm32f10x_rcc.c ****   /* Store the new value */
 392:stm32f10x_lib/STM32F10x_StdPeriph_Driver/src/stm32f10x_rcc.c ****   RCC->CFGR = tmpreg;
 328              		.loc 1 392 3 is_stmt 1 view .LVU60
 329              	@ stm32f10x_lib/STM32F10x_StdPeriph_Driver/src/stm32f10x_rcc.c:392:   RCC->CFGR = tmpreg;
 330              		.loc 1 392 13 is_stmt 0 view .LVU61
 331 00a8 5360     		str	r3, [r2, #4]	@ tmpreg, MEM[(struct RCC_TypeDef *)1073876992B].CFGR
 332              	@ stm32f10x_lib/STM32F10x_StdPeriph_Driver/src/stm32f10x_rcc.c:393: }
 393:stm32f10x_lib/STM32F10x_StdPeriph_Driver/src/stm32f10x_rcc.c **** }
 333              		.loc 1 393 1 view .LVU62
 334 00aa 7047     		bx	lr	@
 335              	.L19:
 336              		.align	2
 337              	.L18:
 338 00ac 00100240 		.word	1073876992
 339              		.cfi_endproc
 340              	.LFE34:
 341              		.size	RCC_PLLConfig, .-RCC_PLLConfig
ARM GAS  /tmp/cc6sR8f9.s 			page 14


 342              		.align	1
 343              		.global	RCC_PLLCmd
 344              		.syntax unified
 345              		.thumb
 346              		.thumb_func
 347              		.fpu softvfp
 348              		.type	RCC_PLLCmd, %function
 349              	RCC_PLLCmd:
 350              	.LVL11:
 351              	.LFB35:
 394:stm32f10x_lib/STM32F10x_StdPeriph_Driver/src/stm32f10x_rcc.c **** 
 395:stm32f10x_lib/STM32F10x_StdPeriph_Driver/src/stm32f10x_rcc.c **** /**
 396:stm32f10x_lib/STM32F10x_StdPeriph_Driver/src/stm32f10x_rcc.c ****   * @brief  Enables or disables the PLL.
 397:stm32f10x_lib/STM32F10x_StdPeriph_Driver/src/stm32f10x_rcc.c ****   * @note   The PLL can not be disabled if it is used as system clock.
 398:stm32f10x_lib/STM32F10x_StdPeriph_Driver/src/stm32f10x_rcc.c ****   * @param  NewState: new state of the PLL. This parameter can be: ENABLE or DISABLE.
 399:stm32f10x_lib/STM32F10x_StdPeriph_Driver/src/stm32f10x_rcc.c ****   * @retval None
 400:stm32f10x_lib/STM32F10x_StdPeriph_Driver/src/stm32f10x_rcc.c ****   */
 401:stm32f10x_lib/STM32F10x_StdPeriph_Driver/src/stm32f10x_rcc.c **** void RCC_PLLCmd(FunctionalState NewState)
 402:stm32f10x_lib/STM32F10x_StdPeriph_Driver/src/stm32f10x_rcc.c **** {
 352              		.loc 1 402 1 is_stmt 1 view -0
 353              		.cfi_startproc
 354              		@ args = 0, pretend = 0, frame = 0
 355              		@ frame_needed = 0, uses_anonymous_args = 0
 356              		@ link register save eliminated.
 403:stm32f10x_lib/STM32F10x_StdPeriph_Driver/src/stm32f10x_rcc.c ****   /* Check the parameters */
 404:stm32f10x_lib/STM32F10x_StdPeriph_Driver/src/stm32f10x_rcc.c ****   assert_param(IS_FUNCTIONAL_STATE(NewState));
 357              		.loc 1 404 3 view .LVU64
 405:stm32f10x_lib/STM32F10x_StdPeriph_Driver/src/stm32f10x_rcc.c **** 
 406:stm32f10x_lib/STM32F10x_StdPeriph_Driver/src/stm32f10x_rcc.c ****   *(__IO uint32_t *) CR_PLLON_BB = (uint32_t)NewState;
 358              		.loc 1 406 3 view .LVU65
 359              	@ stm32f10x_lib/STM32F10x_StdPeriph_Driver/src/stm32f10x_rcc.c:406:   *(__IO uint32_t *) CR_PLLON_B
 360              		.loc 1 406 34 is_stmt 0 view .LVU66
 361 00b0 014B     		ldr	r3, .L21	@ tmp112,
 362 00b2 1860     		str	r0, [r3]	@ NewState, MEM[(volatile uint32_t *)1111621728B]
 363              	@ stm32f10x_lib/STM32F10x_StdPeriph_Driver/src/stm32f10x_rcc.c:407: }
 407:stm32f10x_lib/STM32F10x_StdPeriph_Driver/src/stm32f10x_rcc.c **** }
 364              		.loc 1 407 1 view .LVU67
 365 00b4 7047     		bx	lr	@
 366              	.L22:
 367 00b6 00BF     		.align	2
 368              	.L21:
 369 00b8 60004242 		.word	1111621728
 370              		.cfi_endproc
 371              	.LFE35:
 372              		.size	RCC_PLLCmd, .-RCC_PLLCmd
 373              		.align	1
 374              		.global	RCC_PREDIV1Config
 375              		.syntax unified
 376              		.thumb
 377              		.thumb_func
 378              		.fpu softvfp
 379              		.type	RCC_PREDIV1Config, %function
 380              	RCC_PREDIV1Config:
 381              	.LVL12:
 382              	.LFB36:
 408:stm32f10x_lib/STM32F10x_StdPeriph_Driver/src/stm32f10x_rcc.c **** 
 409:stm32f10x_lib/STM32F10x_StdPeriph_Driver/src/stm32f10x_rcc.c **** #if defined (STM32F10X_LD_VL) || defined (STM32F10X_MD_VL) || defined (STM32F10X_HD_VL) || defined 
ARM GAS  /tmp/cc6sR8f9.s 			page 15


 410:stm32f10x_lib/STM32F10x_StdPeriph_Driver/src/stm32f10x_rcc.c **** /**
 411:stm32f10x_lib/STM32F10x_StdPeriph_Driver/src/stm32f10x_rcc.c ****   * @brief  Configures the PREDIV1 division factor.
 412:stm32f10x_lib/STM32F10x_StdPeriph_Driver/src/stm32f10x_rcc.c ****   * @note 
 413:stm32f10x_lib/STM32F10x_StdPeriph_Driver/src/stm32f10x_rcc.c ****   *   - This function must be used only when the PLL is disabled.
 414:stm32f10x_lib/STM32F10x_StdPeriph_Driver/src/stm32f10x_rcc.c ****   *   - This function applies only to STM32 Connectivity line and Value line 
 415:stm32f10x_lib/STM32F10x_StdPeriph_Driver/src/stm32f10x_rcc.c ****   *     devices.
 416:stm32f10x_lib/STM32F10x_StdPeriph_Driver/src/stm32f10x_rcc.c ****   * @param  RCC_PREDIV1_Source: specifies the PREDIV1 clock source.
 417:stm32f10x_lib/STM32F10x_StdPeriph_Driver/src/stm32f10x_rcc.c ****   *   This parameter can be one of the following values:
 418:stm32f10x_lib/STM32F10x_StdPeriph_Driver/src/stm32f10x_rcc.c ****   *     @arg RCC_PREDIV1_Source_HSE: HSE selected as PREDIV1 clock
 419:stm32f10x_lib/STM32F10x_StdPeriph_Driver/src/stm32f10x_rcc.c ****   *     @arg RCC_PREDIV1_Source_PLL2: PLL2 selected as PREDIV1 clock
 420:stm32f10x_lib/STM32F10x_StdPeriph_Driver/src/stm32f10x_rcc.c ****   * @note 
 421:stm32f10x_lib/STM32F10x_StdPeriph_Driver/src/stm32f10x_rcc.c ****   *   For @b STM32_Value_line_devices this parameter is always RCC_PREDIV1_Source_HSE  
 422:stm32f10x_lib/STM32F10x_StdPeriph_Driver/src/stm32f10x_rcc.c ****   * @param  RCC_PREDIV1_Div: specifies the PREDIV1 clock division factor.
 423:stm32f10x_lib/STM32F10x_StdPeriph_Driver/src/stm32f10x_rcc.c ****   *   This parameter can be RCC_PREDIV1_Divx where x:[1,16]
 424:stm32f10x_lib/STM32F10x_StdPeriph_Driver/src/stm32f10x_rcc.c ****   * @retval None
 425:stm32f10x_lib/STM32F10x_StdPeriph_Driver/src/stm32f10x_rcc.c ****   */
 426:stm32f10x_lib/STM32F10x_StdPeriph_Driver/src/stm32f10x_rcc.c **** void RCC_PREDIV1Config(uint32_t RCC_PREDIV1_Source, uint32_t RCC_PREDIV1_Div)
 427:stm32f10x_lib/STM32F10x_StdPeriph_Driver/src/stm32f10x_rcc.c **** {
 383              		.loc 1 427 1 is_stmt 1 view -0
 384              		.cfi_startproc
 385              		@ args = 0, pretend = 0, frame = 0
 386              		@ frame_needed = 0, uses_anonymous_args = 0
 387              		@ link register save eliminated.
 428:stm32f10x_lib/STM32F10x_StdPeriph_Driver/src/stm32f10x_rcc.c ****   uint32_t tmpreg = 0;
 388              		.loc 1 428 3 view .LVU69
 429:stm32f10x_lib/STM32F10x_StdPeriph_Driver/src/stm32f10x_rcc.c ****   
 430:stm32f10x_lib/STM32F10x_StdPeriph_Driver/src/stm32f10x_rcc.c ****   /* Check the parameters */
 431:stm32f10x_lib/STM32F10x_StdPeriph_Driver/src/stm32f10x_rcc.c ****   assert_param(IS_RCC_PREDIV1_SOURCE(RCC_PREDIV1_Source));
 389              		.loc 1 431 3 view .LVU70
 432:stm32f10x_lib/STM32F10x_StdPeriph_Driver/src/stm32f10x_rcc.c ****   assert_param(IS_RCC_PREDIV1(RCC_PREDIV1_Div));
 390              		.loc 1 432 3 view .LVU71
 433:stm32f10x_lib/STM32F10x_StdPeriph_Driver/src/stm32f10x_rcc.c **** 
 434:stm32f10x_lib/STM32F10x_StdPeriph_Driver/src/stm32f10x_rcc.c ****   tmpreg = RCC->CFGR2;
 391              		.loc 1 434 3 view .LVU72
 392              	@ stm32f10x_lib/STM32F10x_StdPeriph_Driver/src/stm32f10x_rcc.c:434:   tmpreg = RCC->CFGR2;
 393              		.loc 1 434 10 is_stmt 0 view .LVU73
 394 00bc 044A     		ldr	r2, .L24	@ tmp116,
 395 00be D36A     		ldr	r3, [r2, #44]	@ tmpreg, MEM[(struct RCC_TypeDef *)1073876992B].CFGR2
 396              	.LVL13:
 435:stm32f10x_lib/STM32F10x_StdPeriph_Driver/src/stm32f10x_rcc.c ****   /* Clear PREDIV1[3:0] and PREDIV1SRC bits */
 436:stm32f10x_lib/STM32F10x_StdPeriph_Driver/src/stm32f10x_rcc.c ****   tmpreg &= ~(CFGR2_PREDIV1 | CFGR2_PREDIV1SRC);
 397              		.loc 1 436 3 is_stmt 1 view .LVU74
 437:stm32f10x_lib/STM32F10x_StdPeriph_Driver/src/stm32f10x_rcc.c ****   /* Set the PREDIV1 clock source and division factor */
 438:stm32f10x_lib/STM32F10x_StdPeriph_Driver/src/stm32f10x_rcc.c ****   tmpreg |= RCC_PREDIV1_Source | RCC_PREDIV1_Div ;
 398              		.loc 1 438 3 view .LVU75
 399              	@ stm32f10x_lib/STM32F10x_StdPeriph_Driver/src/stm32f10x_rcc.c:436:   tmpreg &= ~(CFGR2_PREDIV1 | C
 436:stm32f10x_lib/STM32F10x_StdPeriph_Driver/src/stm32f10x_rcc.c ****   /* Set the PREDIV1 clock source and division factor */
 400              		.loc 1 436 10 is_stmt 0 view .LVU76
 401 00c0 23F48033 		bic	r3, r3, #65536	@ tmpreg, tmpreg,
 402              	.LVL14:
 436:stm32f10x_lib/STM32F10x_StdPeriph_Driver/src/stm32f10x_rcc.c ****   /* Set the PREDIV1 clock source and division factor */
 403              		.loc 1 436 10 view .LVU77
 404 00c4 23F00F03 		bic	r3, r3, #15	@ tmpreg, tmpreg,
 405 00c8 0B43     		orrs	r3, r3, r1	@, _9, tmpreg, tmp121
 406              	@ stm32f10x_lib/STM32F10x_StdPeriph_Driver/src/stm32f10x_rcc.c:438:   tmpreg |= RCC_PREDIV1_Source 
 407              		.loc 1 438 10 view .LVU78
 408 00ca 0343     		orrs	r3, r3, r0	@, tmpreg, _9, tmp120
ARM GAS  /tmp/cc6sR8f9.s 			page 16


 409              	.LVL15:
 439:stm32f10x_lib/STM32F10x_StdPeriph_Driver/src/stm32f10x_rcc.c ****   /* Store the new value */
 440:stm32f10x_lib/STM32F10x_StdPeriph_Driver/src/stm32f10x_rcc.c ****   RCC->CFGR2 = tmpreg;
 410              		.loc 1 440 3 is_stmt 1 view .LVU79
 411              	@ stm32f10x_lib/STM32F10x_StdPeriph_Driver/src/stm32f10x_rcc.c:440:   RCC->CFGR2 = tmpreg;
 412              		.loc 1 440 14 is_stmt 0 view .LVU80
 413 00cc D362     		str	r3, [r2, #44]	@ tmpreg, MEM[(struct RCC_TypeDef *)1073876992B].CFGR2
 414              	@ stm32f10x_lib/STM32F10x_StdPeriph_Driver/src/stm32f10x_rcc.c:441: }
 441:stm32f10x_lib/STM32F10x_StdPeriph_Driver/src/stm32f10x_rcc.c **** }
 415              		.loc 1 441 1 view .LVU81
 416 00ce 7047     		bx	lr	@
 417              	.L25:
 418              		.align	2
 419              	.L24:
 420 00d0 00100240 		.word	1073876992
 421              		.cfi_endproc
 422              	.LFE36:
 423              		.size	RCC_PREDIV1Config, .-RCC_PREDIV1Config
 424              		.align	1
 425              		.global	RCC_SYSCLKConfig
 426              		.syntax unified
 427              		.thumb
 428              		.thumb_func
 429              		.fpu softvfp
 430              		.type	RCC_SYSCLKConfig, %function
 431              	RCC_SYSCLKConfig:
 432              	.LVL16:
 433              	.LFB37:
 442:stm32f10x_lib/STM32F10x_StdPeriph_Driver/src/stm32f10x_rcc.c **** #endif
 443:stm32f10x_lib/STM32F10x_StdPeriph_Driver/src/stm32f10x_rcc.c **** 
 444:stm32f10x_lib/STM32F10x_StdPeriph_Driver/src/stm32f10x_rcc.c **** #ifdef STM32F10X_CL
 445:stm32f10x_lib/STM32F10x_StdPeriph_Driver/src/stm32f10x_rcc.c **** /**
 446:stm32f10x_lib/STM32F10x_StdPeriph_Driver/src/stm32f10x_rcc.c ****   * @brief  Configures the PREDIV2 division factor.
 447:stm32f10x_lib/STM32F10x_StdPeriph_Driver/src/stm32f10x_rcc.c ****   * @note 
 448:stm32f10x_lib/STM32F10x_StdPeriph_Driver/src/stm32f10x_rcc.c ****   *   - This function must be used only when both PLL2 and PLL3 are disabled.
 449:stm32f10x_lib/STM32F10x_StdPeriph_Driver/src/stm32f10x_rcc.c ****   *   - This function applies only to STM32 Connectivity line devices.
 450:stm32f10x_lib/STM32F10x_StdPeriph_Driver/src/stm32f10x_rcc.c ****   * @param  RCC_PREDIV2_Div: specifies the PREDIV2 clock division factor.
 451:stm32f10x_lib/STM32F10x_StdPeriph_Driver/src/stm32f10x_rcc.c ****   *   This parameter can be RCC_PREDIV2_Divx where x:[1,16]
 452:stm32f10x_lib/STM32F10x_StdPeriph_Driver/src/stm32f10x_rcc.c ****   * @retval None
 453:stm32f10x_lib/STM32F10x_StdPeriph_Driver/src/stm32f10x_rcc.c ****   */
 454:stm32f10x_lib/STM32F10x_StdPeriph_Driver/src/stm32f10x_rcc.c **** void RCC_PREDIV2Config(uint32_t RCC_PREDIV2_Div)
 455:stm32f10x_lib/STM32F10x_StdPeriph_Driver/src/stm32f10x_rcc.c **** {
 456:stm32f10x_lib/STM32F10x_StdPeriph_Driver/src/stm32f10x_rcc.c ****   uint32_t tmpreg = 0;
 457:stm32f10x_lib/STM32F10x_StdPeriph_Driver/src/stm32f10x_rcc.c **** 
 458:stm32f10x_lib/STM32F10x_StdPeriph_Driver/src/stm32f10x_rcc.c ****   /* Check the parameters */
 459:stm32f10x_lib/STM32F10x_StdPeriph_Driver/src/stm32f10x_rcc.c ****   assert_param(IS_RCC_PREDIV2(RCC_PREDIV2_Div));
 460:stm32f10x_lib/STM32F10x_StdPeriph_Driver/src/stm32f10x_rcc.c **** 
 461:stm32f10x_lib/STM32F10x_StdPeriph_Driver/src/stm32f10x_rcc.c ****   tmpreg = RCC->CFGR2;
 462:stm32f10x_lib/STM32F10x_StdPeriph_Driver/src/stm32f10x_rcc.c ****   /* Clear PREDIV2[3:0] bits */
 463:stm32f10x_lib/STM32F10x_StdPeriph_Driver/src/stm32f10x_rcc.c ****   tmpreg &= ~CFGR2_PREDIV2;
 464:stm32f10x_lib/STM32F10x_StdPeriph_Driver/src/stm32f10x_rcc.c ****   /* Set the PREDIV2 division factor */
 465:stm32f10x_lib/STM32F10x_StdPeriph_Driver/src/stm32f10x_rcc.c ****   tmpreg |= RCC_PREDIV2_Div;
 466:stm32f10x_lib/STM32F10x_StdPeriph_Driver/src/stm32f10x_rcc.c ****   /* Store the new value */
 467:stm32f10x_lib/STM32F10x_StdPeriph_Driver/src/stm32f10x_rcc.c ****   RCC->CFGR2 = tmpreg;
 468:stm32f10x_lib/STM32F10x_StdPeriph_Driver/src/stm32f10x_rcc.c **** }
 469:stm32f10x_lib/STM32F10x_StdPeriph_Driver/src/stm32f10x_rcc.c **** 
 470:stm32f10x_lib/STM32F10x_StdPeriph_Driver/src/stm32f10x_rcc.c **** /**
ARM GAS  /tmp/cc6sR8f9.s 			page 17


 471:stm32f10x_lib/STM32F10x_StdPeriph_Driver/src/stm32f10x_rcc.c ****   * @brief  Configures the PLL2 multiplication factor.
 472:stm32f10x_lib/STM32F10x_StdPeriph_Driver/src/stm32f10x_rcc.c ****   * @note
 473:stm32f10x_lib/STM32F10x_StdPeriph_Driver/src/stm32f10x_rcc.c ****   *   - This function must be used only when the PLL2 is disabled.
 474:stm32f10x_lib/STM32F10x_StdPeriph_Driver/src/stm32f10x_rcc.c ****   *   - This function applies only to STM32 Connectivity line devices.
 475:stm32f10x_lib/STM32F10x_StdPeriph_Driver/src/stm32f10x_rcc.c ****   * @param  RCC_PLL2Mul: specifies the PLL2 multiplication factor.
 476:stm32f10x_lib/STM32F10x_StdPeriph_Driver/src/stm32f10x_rcc.c ****   *   This parameter can be RCC_PLL2Mul_x where x:{[8,14], 16, 20}
 477:stm32f10x_lib/STM32F10x_StdPeriph_Driver/src/stm32f10x_rcc.c ****   * @retval None
 478:stm32f10x_lib/STM32F10x_StdPeriph_Driver/src/stm32f10x_rcc.c ****   */
 479:stm32f10x_lib/STM32F10x_StdPeriph_Driver/src/stm32f10x_rcc.c **** void RCC_PLL2Config(uint32_t RCC_PLL2Mul)
 480:stm32f10x_lib/STM32F10x_StdPeriph_Driver/src/stm32f10x_rcc.c **** {
 481:stm32f10x_lib/STM32F10x_StdPeriph_Driver/src/stm32f10x_rcc.c ****   uint32_t tmpreg = 0;
 482:stm32f10x_lib/STM32F10x_StdPeriph_Driver/src/stm32f10x_rcc.c **** 
 483:stm32f10x_lib/STM32F10x_StdPeriph_Driver/src/stm32f10x_rcc.c ****   /* Check the parameters */
 484:stm32f10x_lib/STM32F10x_StdPeriph_Driver/src/stm32f10x_rcc.c ****   assert_param(IS_RCC_PLL2_MUL(RCC_PLL2Mul));
 485:stm32f10x_lib/STM32F10x_StdPeriph_Driver/src/stm32f10x_rcc.c **** 
 486:stm32f10x_lib/STM32F10x_StdPeriph_Driver/src/stm32f10x_rcc.c ****   tmpreg = RCC->CFGR2;
 487:stm32f10x_lib/STM32F10x_StdPeriph_Driver/src/stm32f10x_rcc.c ****   /* Clear PLL2Mul[3:0] bits */
 488:stm32f10x_lib/STM32F10x_StdPeriph_Driver/src/stm32f10x_rcc.c ****   tmpreg &= ~CFGR2_PLL2MUL;
 489:stm32f10x_lib/STM32F10x_StdPeriph_Driver/src/stm32f10x_rcc.c ****   /* Set the PLL2 configuration bits */
 490:stm32f10x_lib/STM32F10x_StdPeriph_Driver/src/stm32f10x_rcc.c ****   tmpreg |= RCC_PLL2Mul;
 491:stm32f10x_lib/STM32F10x_StdPeriph_Driver/src/stm32f10x_rcc.c ****   /* Store the new value */
 492:stm32f10x_lib/STM32F10x_StdPeriph_Driver/src/stm32f10x_rcc.c ****   RCC->CFGR2 = tmpreg;
 493:stm32f10x_lib/STM32F10x_StdPeriph_Driver/src/stm32f10x_rcc.c **** }
 494:stm32f10x_lib/STM32F10x_StdPeriph_Driver/src/stm32f10x_rcc.c **** 
 495:stm32f10x_lib/STM32F10x_StdPeriph_Driver/src/stm32f10x_rcc.c **** 
 496:stm32f10x_lib/STM32F10x_StdPeriph_Driver/src/stm32f10x_rcc.c **** /**
 497:stm32f10x_lib/STM32F10x_StdPeriph_Driver/src/stm32f10x_rcc.c ****   * @brief  Enables or disables the PLL2.
 498:stm32f10x_lib/STM32F10x_StdPeriph_Driver/src/stm32f10x_rcc.c ****   * @note 
 499:stm32f10x_lib/STM32F10x_StdPeriph_Driver/src/stm32f10x_rcc.c ****   *   - The PLL2 can not be disabled if it is used indirectly as system clock
 500:stm32f10x_lib/STM32F10x_StdPeriph_Driver/src/stm32f10x_rcc.c ****   *     (i.e. it is used as PLL clock entry that is used as System clock).
 501:stm32f10x_lib/STM32F10x_StdPeriph_Driver/src/stm32f10x_rcc.c ****   *   - This function applies only to STM32 Connectivity line devices.
 502:stm32f10x_lib/STM32F10x_StdPeriph_Driver/src/stm32f10x_rcc.c ****   * @param  NewState: new state of the PLL2. This parameter can be: ENABLE or DISABLE.
 503:stm32f10x_lib/STM32F10x_StdPeriph_Driver/src/stm32f10x_rcc.c ****   * @retval None
 504:stm32f10x_lib/STM32F10x_StdPeriph_Driver/src/stm32f10x_rcc.c ****   */
 505:stm32f10x_lib/STM32F10x_StdPeriph_Driver/src/stm32f10x_rcc.c **** void RCC_PLL2Cmd(FunctionalState NewState)
 506:stm32f10x_lib/STM32F10x_StdPeriph_Driver/src/stm32f10x_rcc.c **** {
 507:stm32f10x_lib/STM32F10x_StdPeriph_Driver/src/stm32f10x_rcc.c ****   /* Check the parameters */
 508:stm32f10x_lib/STM32F10x_StdPeriph_Driver/src/stm32f10x_rcc.c ****   assert_param(IS_FUNCTIONAL_STATE(NewState));
 509:stm32f10x_lib/STM32F10x_StdPeriph_Driver/src/stm32f10x_rcc.c **** 
 510:stm32f10x_lib/STM32F10x_StdPeriph_Driver/src/stm32f10x_rcc.c ****   *(__IO uint32_t *) CR_PLL2ON_BB = (uint32_t)NewState;
 511:stm32f10x_lib/STM32F10x_StdPeriph_Driver/src/stm32f10x_rcc.c **** }
 512:stm32f10x_lib/STM32F10x_StdPeriph_Driver/src/stm32f10x_rcc.c **** 
 513:stm32f10x_lib/STM32F10x_StdPeriph_Driver/src/stm32f10x_rcc.c **** 
 514:stm32f10x_lib/STM32F10x_StdPeriph_Driver/src/stm32f10x_rcc.c **** /**
 515:stm32f10x_lib/STM32F10x_StdPeriph_Driver/src/stm32f10x_rcc.c ****   * @brief  Configures the PLL3 multiplication factor.
 516:stm32f10x_lib/STM32F10x_StdPeriph_Driver/src/stm32f10x_rcc.c ****   * @note 
 517:stm32f10x_lib/STM32F10x_StdPeriph_Driver/src/stm32f10x_rcc.c ****   *   - This function must be used only when the PLL3 is disabled.
 518:stm32f10x_lib/STM32F10x_StdPeriph_Driver/src/stm32f10x_rcc.c ****   *   - This function applies only to STM32 Connectivity line devices.
 519:stm32f10x_lib/STM32F10x_StdPeriph_Driver/src/stm32f10x_rcc.c ****   * @param  RCC_PLL3Mul: specifies the PLL3 multiplication factor.
 520:stm32f10x_lib/STM32F10x_StdPeriph_Driver/src/stm32f10x_rcc.c ****   *   This parameter can be RCC_PLL3Mul_x where x:{[8,14], 16, 20}
 521:stm32f10x_lib/STM32F10x_StdPeriph_Driver/src/stm32f10x_rcc.c ****   * @retval None
 522:stm32f10x_lib/STM32F10x_StdPeriph_Driver/src/stm32f10x_rcc.c ****   */
 523:stm32f10x_lib/STM32F10x_StdPeriph_Driver/src/stm32f10x_rcc.c **** void RCC_PLL3Config(uint32_t RCC_PLL3Mul)
 524:stm32f10x_lib/STM32F10x_StdPeriph_Driver/src/stm32f10x_rcc.c **** {
 525:stm32f10x_lib/STM32F10x_StdPeriph_Driver/src/stm32f10x_rcc.c ****   uint32_t tmpreg = 0;
 526:stm32f10x_lib/STM32F10x_StdPeriph_Driver/src/stm32f10x_rcc.c **** 
 527:stm32f10x_lib/STM32F10x_StdPeriph_Driver/src/stm32f10x_rcc.c ****   /* Check the parameters */
ARM GAS  /tmp/cc6sR8f9.s 			page 18


 528:stm32f10x_lib/STM32F10x_StdPeriph_Driver/src/stm32f10x_rcc.c ****   assert_param(IS_RCC_PLL3_MUL(RCC_PLL3Mul));
 529:stm32f10x_lib/STM32F10x_StdPeriph_Driver/src/stm32f10x_rcc.c **** 
 530:stm32f10x_lib/STM32F10x_StdPeriph_Driver/src/stm32f10x_rcc.c ****   tmpreg = RCC->CFGR2;
 531:stm32f10x_lib/STM32F10x_StdPeriph_Driver/src/stm32f10x_rcc.c ****   /* Clear PLL3Mul[3:0] bits */
 532:stm32f10x_lib/STM32F10x_StdPeriph_Driver/src/stm32f10x_rcc.c ****   tmpreg &= ~CFGR2_PLL3MUL;
 533:stm32f10x_lib/STM32F10x_StdPeriph_Driver/src/stm32f10x_rcc.c ****   /* Set the PLL3 configuration bits */
 534:stm32f10x_lib/STM32F10x_StdPeriph_Driver/src/stm32f10x_rcc.c ****   tmpreg |= RCC_PLL3Mul;
 535:stm32f10x_lib/STM32F10x_StdPeriph_Driver/src/stm32f10x_rcc.c ****   /* Store the new value */
 536:stm32f10x_lib/STM32F10x_StdPeriph_Driver/src/stm32f10x_rcc.c ****   RCC->CFGR2 = tmpreg;
 537:stm32f10x_lib/STM32F10x_StdPeriph_Driver/src/stm32f10x_rcc.c **** }
 538:stm32f10x_lib/STM32F10x_StdPeriph_Driver/src/stm32f10x_rcc.c **** 
 539:stm32f10x_lib/STM32F10x_StdPeriph_Driver/src/stm32f10x_rcc.c **** 
 540:stm32f10x_lib/STM32F10x_StdPeriph_Driver/src/stm32f10x_rcc.c **** /**
 541:stm32f10x_lib/STM32F10x_StdPeriph_Driver/src/stm32f10x_rcc.c ****   * @brief  Enables or disables the PLL3.
 542:stm32f10x_lib/STM32F10x_StdPeriph_Driver/src/stm32f10x_rcc.c ****   * @note   This function applies only to STM32 Connectivity line devices.
 543:stm32f10x_lib/STM32F10x_StdPeriph_Driver/src/stm32f10x_rcc.c ****   * @param  NewState: new state of the PLL3. This parameter can be: ENABLE or DISABLE.
 544:stm32f10x_lib/STM32F10x_StdPeriph_Driver/src/stm32f10x_rcc.c ****   * @retval None
 545:stm32f10x_lib/STM32F10x_StdPeriph_Driver/src/stm32f10x_rcc.c ****   */
 546:stm32f10x_lib/STM32F10x_StdPeriph_Driver/src/stm32f10x_rcc.c **** void RCC_PLL3Cmd(FunctionalState NewState)
 547:stm32f10x_lib/STM32F10x_StdPeriph_Driver/src/stm32f10x_rcc.c **** {
 548:stm32f10x_lib/STM32F10x_StdPeriph_Driver/src/stm32f10x_rcc.c ****   /* Check the parameters */
 549:stm32f10x_lib/STM32F10x_StdPeriph_Driver/src/stm32f10x_rcc.c **** 
 550:stm32f10x_lib/STM32F10x_StdPeriph_Driver/src/stm32f10x_rcc.c ****   assert_param(IS_FUNCTIONAL_STATE(NewState));
 551:stm32f10x_lib/STM32F10x_StdPeriph_Driver/src/stm32f10x_rcc.c ****   *(__IO uint32_t *) CR_PLL3ON_BB = (uint32_t)NewState;
 552:stm32f10x_lib/STM32F10x_StdPeriph_Driver/src/stm32f10x_rcc.c **** }
 553:stm32f10x_lib/STM32F10x_StdPeriph_Driver/src/stm32f10x_rcc.c **** #endif /* STM32F10X_CL */
 554:stm32f10x_lib/STM32F10x_StdPeriph_Driver/src/stm32f10x_rcc.c **** 
 555:stm32f10x_lib/STM32F10x_StdPeriph_Driver/src/stm32f10x_rcc.c **** /**
 556:stm32f10x_lib/STM32F10x_StdPeriph_Driver/src/stm32f10x_rcc.c ****   * @brief  Configures the system clock (SYSCLK).
 557:stm32f10x_lib/STM32F10x_StdPeriph_Driver/src/stm32f10x_rcc.c ****   * @param  RCC_SYSCLKSource: specifies the clock source used as system clock.
 558:stm32f10x_lib/STM32F10x_StdPeriph_Driver/src/stm32f10x_rcc.c ****   *   This parameter can be one of the following values:
 559:stm32f10x_lib/STM32F10x_StdPeriph_Driver/src/stm32f10x_rcc.c ****   *     @arg RCC_SYSCLKSource_HSI: HSI selected as system clock
 560:stm32f10x_lib/STM32F10x_StdPeriph_Driver/src/stm32f10x_rcc.c ****   *     @arg RCC_SYSCLKSource_HSE: HSE selected as system clock
 561:stm32f10x_lib/STM32F10x_StdPeriph_Driver/src/stm32f10x_rcc.c ****   *     @arg RCC_SYSCLKSource_PLLCLK: PLL selected as system clock
 562:stm32f10x_lib/STM32F10x_StdPeriph_Driver/src/stm32f10x_rcc.c ****   * @retval None
 563:stm32f10x_lib/STM32F10x_StdPeriph_Driver/src/stm32f10x_rcc.c ****   */
 564:stm32f10x_lib/STM32F10x_StdPeriph_Driver/src/stm32f10x_rcc.c **** void RCC_SYSCLKConfig(uint32_t RCC_SYSCLKSource)
 565:stm32f10x_lib/STM32F10x_StdPeriph_Driver/src/stm32f10x_rcc.c **** {
 434              		.loc 1 565 1 is_stmt 1 view -0
 435              		.cfi_startproc
 436              		@ args = 0, pretend = 0, frame = 0
 437              		@ frame_needed = 0, uses_anonymous_args = 0
 438              		@ link register save eliminated.
 566:stm32f10x_lib/STM32F10x_StdPeriph_Driver/src/stm32f10x_rcc.c ****   uint32_t tmpreg = 0;
 439              		.loc 1 566 3 view .LVU83
 567:stm32f10x_lib/STM32F10x_StdPeriph_Driver/src/stm32f10x_rcc.c ****   /* Check the parameters */
 568:stm32f10x_lib/STM32F10x_StdPeriph_Driver/src/stm32f10x_rcc.c ****   assert_param(IS_RCC_SYSCLK_SOURCE(RCC_SYSCLKSource));
 440              		.loc 1 568 3 view .LVU84
 569:stm32f10x_lib/STM32F10x_StdPeriph_Driver/src/stm32f10x_rcc.c ****   tmpreg = RCC->CFGR;
 441              		.loc 1 569 3 view .LVU85
 442              	@ stm32f10x_lib/STM32F10x_StdPeriph_Driver/src/stm32f10x_rcc.c:569:   tmpreg = RCC->CFGR;
 443              		.loc 1 569 10 is_stmt 0 view .LVU86
 444 00d4 034A     		ldr	r2, .L27	@ tmp114,
 445 00d6 5368     		ldr	r3, [r2, #4]	@ tmpreg, MEM[(struct RCC_TypeDef *)1073876992B].CFGR
 446              	.LVL17:
 570:stm32f10x_lib/STM32F10x_StdPeriph_Driver/src/stm32f10x_rcc.c ****   /* Clear SW[1:0] bits */
 571:stm32f10x_lib/STM32F10x_StdPeriph_Driver/src/stm32f10x_rcc.c ****   tmpreg &= CFGR_SW_Mask;
ARM GAS  /tmp/cc6sR8f9.s 			page 19


 447              		.loc 1 571 3 is_stmt 1 view .LVU87
 448              	@ stm32f10x_lib/STM32F10x_StdPeriph_Driver/src/stm32f10x_rcc.c:571:   tmpreg &= CFGR_SW_Mask;
 449              		.loc 1 571 10 is_stmt 0 view .LVU88
 450 00d8 23F00303 		bic	r3, r3, #3	@ tmpreg, tmpreg,
 451              	.LVL18:
 572:stm32f10x_lib/STM32F10x_StdPeriph_Driver/src/stm32f10x_rcc.c ****   /* Set SW[1:0] bits according to RCC_SYSCLKSource value */
 573:stm32f10x_lib/STM32F10x_StdPeriph_Driver/src/stm32f10x_rcc.c ****   tmpreg |= RCC_SYSCLKSource;
 452              		.loc 1 573 3 is_stmt 1 view .LVU89
 453              	@ stm32f10x_lib/STM32F10x_StdPeriph_Driver/src/stm32f10x_rcc.c:573:   tmpreg |= RCC_SYSCLKSource;
 454              		.loc 1 573 10 is_stmt 0 view .LVU90
 455 00dc 0343     		orrs	r3, r3, r0	@, tmpreg, tmpreg, tmp116
 456              	.LVL19:
 574:stm32f10x_lib/STM32F10x_StdPeriph_Driver/src/stm32f10x_rcc.c ****   /* Store the new value */
 575:stm32f10x_lib/STM32F10x_StdPeriph_Driver/src/stm32f10x_rcc.c ****   RCC->CFGR = tmpreg;
 457              		.loc 1 575 3 is_stmt 1 view .LVU91
 458              	@ stm32f10x_lib/STM32F10x_StdPeriph_Driver/src/stm32f10x_rcc.c:575:   RCC->CFGR = tmpreg;
 459              		.loc 1 575 13 is_stmt 0 view .LVU92
 460 00de 5360     		str	r3, [r2, #4]	@ tmpreg, MEM[(struct RCC_TypeDef *)1073876992B].CFGR
 461              	@ stm32f10x_lib/STM32F10x_StdPeriph_Driver/src/stm32f10x_rcc.c:576: }
 576:stm32f10x_lib/STM32F10x_StdPeriph_Driver/src/stm32f10x_rcc.c **** }
 462              		.loc 1 576 1 view .LVU93
 463 00e0 7047     		bx	lr	@
 464              	.L28:
 465 00e2 00BF     		.align	2
 466              	.L27:
 467 00e4 00100240 		.word	1073876992
 468              		.cfi_endproc
 469              	.LFE37:
 470              		.size	RCC_SYSCLKConfig, .-RCC_SYSCLKConfig
 471              		.align	1
 472              		.global	RCC_GetSYSCLKSource
 473              		.syntax unified
 474              		.thumb
 475              		.thumb_func
 476              		.fpu softvfp
 477              		.type	RCC_GetSYSCLKSource, %function
 478              	RCC_GetSYSCLKSource:
 479              	.LFB38:
 577:stm32f10x_lib/STM32F10x_StdPeriph_Driver/src/stm32f10x_rcc.c **** 
 578:stm32f10x_lib/STM32F10x_StdPeriph_Driver/src/stm32f10x_rcc.c **** /**
 579:stm32f10x_lib/STM32F10x_StdPeriph_Driver/src/stm32f10x_rcc.c ****   * @brief  Returns the clock source used as system clock.
 580:stm32f10x_lib/STM32F10x_StdPeriph_Driver/src/stm32f10x_rcc.c ****   * @param  None
 581:stm32f10x_lib/STM32F10x_StdPeriph_Driver/src/stm32f10x_rcc.c ****   * @retval The clock source used as system clock. The returned value can
 582:stm32f10x_lib/STM32F10x_StdPeriph_Driver/src/stm32f10x_rcc.c ****   *   be one of the following:
 583:stm32f10x_lib/STM32F10x_StdPeriph_Driver/src/stm32f10x_rcc.c ****   *     - 0x00: HSI used as system clock
 584:stm32f10x_lib/STM32F10x_StdPeriph_Driver/src/stm32f10x_rcc.c ****   *     - 0x04: HSE used as system clock
 585:stm32f10x_lib/STM32F10x_StdPeriph_Driver/src/stm32f10x_rcc.c ****   *     - 0x08: PLL used as system clock
 586:stm32f10x_lib/STM32F10x_StdPeriph_Driver/src/stm32f10x_rcc.c ****   */
 587:stm32f10x_lib/STM32F10x_StdPeriph_Driver/src/stm32f10x_rcc.c **** uint8_t RCC_GetSYSCLKSource(void)
 588:stm32f10x_lib/STM32F10x_StdPeriph_Driver/src/stm32f10x_rcc.c **** {
 480              		.loc 1 588 1 is_stmt 1 view -0
 481              		.cfi_startproc
 482              		@ args = 0, pretend = 0, frame = 0
 483              		@ frame_needed = 0, uses_anonymous_args = 0
 484              		@ link register save eliminated.
 589:stm32f10x_lib/STM32F10x_StdPeriph_Driver/src/stm32f10x_rcc.c ****   return ((uint8_t)(RCC->CFGR & CFGR_SWS_Mask));
 485              		.loc 1 589 3 view .LVU95
ARM GAS  /tmp/cc6sR8f9.s 			page 20


 486              	@ stm32f10x_lib/STM32F10x_StdPeriph_Driver/src/stm32f10x_rcc.c:589:   return ((uint8_t)(RCC->CFGR &
 487              		.loc 1 589 24 is_stmt 0 view .LVU96
 488 00e8 024B     		ldr	r3, .L30	@ tmp113,
 489 00ea 5868     		ldr	r0, [r3, #4]	@ _1, MEM[(struct RCC_TypeDef *)1073876992B].CFGR
 490              	@ stm32f10x_lib/STM32F10x_StdPeriph_Driver/src/stm32f10x_rcc.c:590: }
 590:stm32f10x_lib/STM32F10x_StdPeriph_Driver/src/stm32f10x_rcc.c **** }
 491              		.loc 1 590 1 view .LVU97
 492 00ec 00F00C00 		and	r0, r0, #12	@, _1,
 493 00f0 7047     		bx	lr	@
 494              	.L31:
 495 00f2 00BF     		.align	2
 496              	.L30:
 497 00f4 00100240 		.word	1073876992
 498              		.cfi_endproc
 499              	.LFE38:
 500              		.size	RCC_GetSYSCLKSource, .-RCC_GetSYSCLKSource
 501              		.align	1
 502              		.global	RCC_HCLKConfig
 503              		.syntax unified
 504              		.thumb
 505              		.thumb_func
 506              		.fpu softvfp
 507              		.type	RCC_HCLKConfig, %function
 508              	RCC_HCLKConfig:
 509              	.LVL20:
 510              	.LFB39:
 591:stm32f10x_lib/STM32F10x_StdPeriph_Driver/src/stm32f10x_rcc.c **** 
 592:stm32f10x_lib/STM32F10x_StdPeriph_Driver/src/stm32f10x_rcc.c **** /**
 593:stm32f10x_lib/STM32F10x_StdPeriph_Driver/src/stm32f10x_rcc.c ****   * @brief  Configures the AHB clock (HCLK).
 594:stm32f10x_lib/STM32F10x_StdPeriph_Driver/src/stm32f10x_rcc.c ****   * @param  RCC_SYSCLK: defines the AHB clock divider. This clock is derived from 
 595:stm32f10x_lib/STM32F10x_StdPeriph_Driver/src/stm32f10x_rcc.c ****   *   the system clock (SYSCLK).
 596:stm32f10x_lib/STM32F10x_StdPeriph_Driver/src/stm32f10x_rcc.c ****   *   This parameter can be one of the following values:
 597:stm32f10x_lib/STM32F10x_StdPeriph_Driver/src/stm32f10x_rcc.c ****   *     @arg RCC_SYSCLK_Div1: AHB clock = SYSCLK
 598:stm32f10x_lib/STM32F10x_StdPeriph_Driver/src/stm32f10x_rcc.c ****   *     @arg RCC_SYSCLK_Div2: AHB clock = SYSCLK/2
 599:stm32f10x_lib/STM32F10x_StdPeriph_Driver/src/stm32f10x_rcc.c ****   *     @arg RCC_SYSCLK_Div4: AHB clock = SYSCLK/4
 600:stm32f10x_lib/STM32F10x_StdPeriph_Driver/src/stm32f10x_rcc.c ****   *     @arg RCC_SYSCLK_Div8: AHB clock = SYSCLK/8
 601:stm32f10x_lib/STM32F10x_StdPeriph_Driver/src/stm32f10x_rcc.c ****   *     @arg RCC_SYSCLK_Div16: AHB clock = SYSCLK/16
 602:stm32f10x_lib/STM32F10x_StdPeriph_Driver/src/stm32f10x_rcc.c ****   *     @arg RCC_SYSCLK_Div64: AHB clock = SYSCLK/64
 603:stm32f10x_lib/STM32F10x_StdPeriph_Driver/src/stm32f10x_rcc.c ****   *     @arg RCC_SYSCLK_Div128: AHB clock = SYSCLK/128
 604:stm32f10x_lib/STM32F10x_StdPeriph_Driver/src/stm32f10x_rcc.c ****   *     @arg RCC_SYSCLK_Div256: AHB clock = SYSCLK/256
 605:stm32f10x_lib/STM32F10x_StdPeriph_Driver/src/stm32f10x_rcc.c ****   *     @arg RCC_SYSCLK_Div512: AHB clock = SYSCLK/512
 606:stm32f10x_lib/STM32F10x_StdPeriph_Driver/src/stm32f10x_rcc.c ****   * @retval None
 607:stm32f10x_lib/STM32F10x_StdPeriph_Driver/src/stm32f10x_rcc.c ****   */
 608:stm32f10x_lib/STM32F10x_StdPeriph_Driver/src/stm32f10x_rcc.c **** void RCC_HCLKConfig(uint32_t RCC_SYSCLK)
 609:stm32f10x_lib/STM32F10x_StdPeriph_Driver/src/stm32f10x_rcc.c **** {
 511              		.loc 1 609 1 is_stmt 1 view -0
 512              		.cfi_startproc
 513              		@ args = 0, pretend = 0, frame = 0
 514              		@ frame_needed = 0, uses_anonymous_args = 0
 515              		@ link register save eliminated.
 610:stm32f10x_lib/STM32F10x_StdPeriph_Driver/src/stm32f10x_rcc.c ****   uint32_t tmpreg = 0;
 516              		.loc 1 610 3 view .LVU99
 611:stm32f10x_lib/STM32F10x_StdPeriph_Driver/src/stm32f10x_rcc.c ****   /* Check the parameters */
 612:stm32f10x_lib/STM32F10x_StdPeriph_Driver/src/stm32f10x_rcc.c ****   assert_param(IS_RCC_HCLK(RCC_SYSCLK));
 517              		.loc 1 612 3 view .LVU100
 613:stm32f10x_lib/STM32F10x_StdPeriph_Driver/src/stm32f10x_rcc.c ****   tmpreg = RCC->CFGR;
 518              		.loc 1 613 3 view .LVU101
ARM GAS  /tmp/cc6sR8f9.s 			page 21


 519              	@ stm32f10x_lib/STM32F10x_StdPeriph_Driver/src/stm32f10x_rcc.c:613:   tmpreg = RCC->CFGR;
 520              		.loc 1 613 10 is_stmt 0 view .LVU102
 521 00f8 034A     		ldr	r2, .L33	@ tmp114,
 522 00fa 5368     		ldr	r3, [r2, #4]	@ tmpreg, MEM[(struct RCC_TypeDef *)1073876992B].CFGR
 523              	.LVL21:
 614:stm32f10x_lib/STM32F10x_StdPeriph_Driver/src/stm32f10x_rcc.c ****   /* Clear HPRE[3:0] bits */
 615:stm32f10x_lib/STM32F10x_StdPeriph_Driver/src/stm32f10x_rcc.c ****   tmpreg &= CFGR_HPRE_Reset_Mask;
 524              		.loc 1 615 3 is_stmt 1 view .LVU103
 525              	@ stm32f10x_lib/STM32F10x_StdPeriph_Driver/src/stm32f10x_rcc.c:615:   tmpreg &= CFGR_HPRE_Reset_Mas
 526              		.loc 1 615 10 is_stmt 0 view .LVU104
 527 00fc 23F0F003 		bic	r3, r3, #240	@ tmpreg, tmpreg,
 528              	.LVL22:
 616:stm32f10x_lib/STM32F10x_StdPeriph_Driver/src/stm32f10x_rcc.c ****   /* Set HPRE[3:0] bits according to RCC_SYSCLK value */
 617:stm32f10x_lib/STM32F10x_StdPeriph_Driver/src/stm32f10x_rcc.c ****   tmpreg |= RCC_SYSCLK;
 529              		.loc 1 617 3 is_stmt 1 view .LVU105
 530              	@ stm32f10x_lib/STM32F10x_StdPeriph_Driver/src/stm32f10x_rcc.c:617:   tmpreg |= RCC_SYSCLK;
 531              		.loc 1 617 10 is_stmt 0 view .LVU106
 532 0100 0343     		orrs	r3, r3, r0	@, tmpreg, tmpreg, tmp116
 533              	.LVL23:
 618:stm32f10x_lib/STM32F10x_StdPeriph_Driver/src/stm32f10x_rcc.c ****   /* Store the new value */
 619:stm32f10x_lib/STM32F10x_StdPeriph_Driver/src/stm32f10x_rcc.c ****   RCC->CFGR = tmpreg;
 534              		.loc 1 619 3 is_stmt 1 view .LVU107
 535              	@ stm32f10x_lib/STM32F10x_StdPeriph_Driver/src/stm32f10x_rcc.c:619:   RCC->CFGR = tmpreg;
 536              		.loc 1 619 13 is_stmt 0 view .LVU108
 537 0102 5360     		str	r3, [r2, #4]	@ tmpreg, MEM[(struct RCC_TypeDef *)1073876992B].CFGR
 538              	@ stm32f10x_lib/STM32F10x_StdPeriph_Driver/src/stm32f10x_rcc.c:620: }
 620:stm32f10x_lib/STM32F10x_StdPeriph_Driver/src/stm32f10x_rcc.c **** }
 539              		.loc 1 620 1 view .LVU109
 540 0104 7047     		bx	lr	@
 541              	.L34:
 542 0106 00BF     		.align	2
 543              	.L33:
 544 0108 00100240 		.word	1073876992
 545              		.cfi_endproc
 546              	.LFE39:
 547              		.size	RCC_HCLKConfig, .-RCC_HCLKConfig
 548              		.align	1
 549              		.global	RCC_PCLK1Config
 550              		.syntax unified
 551              		.thumb
 552              		.thumb_func
 553              		.fpu softvfp
 554              		.type	RCC_PCLK1Config, %function
 555              	RCC_PCLK1Config:
 556              	.LVL24:
 557              	.LFB40:
 621:stm32f10x_lib/STM32F10x_StdPeriph_Driver/src/stm32f10x_rcc.c **** 
 622:stm32f10x_lib/STM32F10x_StdPeriph_Driver/src/stm32f10x_rcc.c **** /**
 623:stm32f10x_lib/STM32F10x_StdPeriph_Driver/src/stm32f10x_rcc.c ****   * @brief  Configures the Low Speed APB clock (PCLK1).
 624:stm32f10x_lib/STM32F10x_StdPeriph_Driver/src/stm32f10x_rcc.c ****   * @param  RCC_HCLK: defines the APB1 clock divider. This clock is derived from 
 625:stm32f10x_lib/STM32F10x_StdPeriph_Driver/src/stm32f10x_rcc.c ****   *   the AHB clock (HCLK).
 626:stm32f10x_lib/STM32F10x_StdPeriph_Driver/src/stm32f10x_rcc.c ****   *   This parameter can be one of the following values:
 627:stm32f10x_lib/STM32F10x_StdPeriph_Driver/src/stm32f10x_rcc.c ****   *     @arg RCC_HCLK_Div1: APB1 clock = HCLK
 628:stm32f10x_lib/STM32F10x_StdPeriph_Driver/src/stm32f10x_rcc.c ****   *     @arg RCC_HCLK_Div2: APB1 clock = HCLK/2
 629:stm32f10x_lib/STM32F10x_StdPeriph_Driver/src/stm32f10x_rcc.c ****   *     @arg RCC_HCLK_Div4: APB1 clock = HCLK/4
 630:stm32f10x_lib/STM32F10x_StdPeriph_Driver/src/stm32f10x_rcc.c ****   *     @arg RCC_HCLK_Div8: APB1 clock = HCLK/8
 631:stm32f10x_lib/STM32F10x_StdPeriph_Driver/src/stm32f10x_rcc.c ****   *     @arg RCC_HCLK_Div16: APB1 clock = HCLK/16
ARM GAS  /tmp/cc6sR8f9.s 			page 22


 632:stm32f10x_lib/STM32F10x_StdPeriph_Driver/src/stm32f10x_rcc.c ****   * @retval None
 633:stm32f10x_lib/STM32F10x_StdPeriph_Driver/src/stm32f10x_rcc.c ****   */
 634:stm32f10x_lib/STM32F10x_StdPeriph_Driver/src/stm32f10x_rcc.c **** void RCC_PCLK1Config(uint32_t RCC_HCLK)
 635:stm32f10x_lib/STM32F10x_StdPeriph_Driver/src/stm32f10x_rcc.c **** {
 558              		.loc 1 635 1 is_stmt 1 view -0
 559              		.cfi_startproc
 560              		@ args = 0, pretend = 0, frame = 0
 561              		@ frame_needed = 0, uses_anonymous_args = 0
 562              		@ link register save eliminated.
 636:stm32f10x_lib/STM32F10x_StdPeriph_Driver/src/stm32f10x_rcc.c ****   uint32_t tmpreg = 0;
 563              		.loc 1 636 3 view .LVU111
 637:stm32f10x_lib/STM32F10x_StdPeriph_Driver/src/stm32f10x_rcc.c ****   /* Check the parameters */
 638:stm32f10x_lib/STM32F10x_StdPeriph_Driver/src/stm32f10x_rcc.c ****   assert_param(IS_RCC_PCLK(RCC_HCLK));
 564              		.loc 1 638 3 view .LVU112
 639:stm32f10x_lib/STM32F10x_StdPeriph_Driver/src/stm32f10x_rcc.c ****   tmpreg = RCC->CFGR;
 565              		.loc 1 639 3 view .LVU113
 566              	@ stm32f10x_lib/STM32F10x_StdPeriph_Driver/src/stm32f10x_rcc.c:639:   tmpreg = RCC->CFGR;
 567              		.loc 1 639 10 is_stmt 0 view .LVU114
 568 010c 034A     		ldr	r2, .L36	@ tmp114,
 569 010e 5368     		ldr	r3, [r2, #4]	@ tmpreg, MEM[(struct RCC_TypeDef *)1073876992B].CFGR
 570              	.LVL25:
 640:stm32f10x_lib/STM32F10x_StdPeriph_Driver/src/stm32f10x_rcc.c ****   /* Clear PPRE1[2:0] bits */
 641:stm32f10x_lib/STM32F10x_StdPeriph_Driver/src/stm32f10x_rcc.c ****   tmpreg &= CFGR_PPRE1_Reset_Mask;
 571              		.loc 1 641 3 is_stmt 1 view .LVU115
 572              	@ stm32f10x_lib/STM32F10x_StdPeriph_Driver/src/stm32f10x_rcc.c:641:   tmpreg &= CFGR_PPRE1_Reset_Ma
 573              		.loc 1 641 10 is_stmt 0 view .LVU116
 574 0110 23F4E063 		bic	r3, r3, #1792	@ tmpreg, tmpreg,
 575              	.LVL26:
 642:stm32f10x_lib/STM32F10x_StdPeriph_Driver/src/stm32f10x_rcc.c ****   /* Set PPRE1[2:0] bits according to RCC_HCLK value */
 643:stm32f10x_lib/STM32F10x_StdPeriph_Driver/src/stm32f10x_rcc.c ****   tmpreg |= RCC_HCLK;
 576              		.loc 1 643 3 is_stmt 1 view .LVU117
 577              	@ stm32f10x_lib/STM32F10x_StdPeriph_Driver/src/stm32f10x_rcc.c:643:   tmpreg |= RCC_HCLK;
 578              		.loc 1 643 10 is_stmt 0 view .LVU118
 579 0114 0343     		orrs	r3, r3, r0	@, tmpreg, tmpreg, tmp116
 580              	.LVL27:
 644:stm32f10x_lib/STM32F10x_StdPeriph_Driver/src/stm32f10x_rcc.c ****   /* Store the new value */
 645:stm32f10x_lib/STM32F10x_StdPeriph_Driver/src/stm32f10x_rcc.c ****   RCC->CFGR = tmpreg;
 581              		.loc 1 645 3 is_stmt 1 view .LVU119
 582              	@ stm32f10x_lib/STM32F10x_StdPeriph_Driver/src/stm32f10x_rcc.c:645:   RCC->CFGR = tmpreg;
 583              		.loc 1 645 13 is_stmt 0 view .LVU120
 584 0116 5360     		str	r3, [r2, #4]	@ tmpreg, MEM[(struct RCC_TypeDef *)1073876992B].CFGR
 585              	@ stm32f10x_lib/STM32F10x_StdPeriph_Driver/src/stm32f10x_rcc.c:646: }
 646:stm32f10x_lib/STM32F10x_StdPeriph_Driver/src/stm32f10x_rcc.c **** }
 586              		.loc 1 646 1 view .LVU121
 587 0118 7047     		bx	lr	@
 588              	.L37:
 589 011a 00BF     		.align	2
 590              	.L36:
 591 011c 00100240 		.word	1073876992
 592              		.cfi_endproc
 593              	.LFE40:
 594              		.size	RCC_PCLK1Config, .-RCC_PCLK1Config
 595              		.align	1
 596              		.global	RCC_PCLK2Config
 597              		.syntax unified
 598              		.thumb
 599              		.thumb_func
ARM GAS  /tmp/cc6sR8f9.s 			page 23


 600              		.fpu softvfp
 601              		.type	RCC_PCLK2Config, %function
 602              	RCC_PCLK2Config:
 603              	.LVL28:
 604              	.LFB41:
 647:stm32f10x_lib/STM32F10x_StdPeriph_Driver/src/stm32f10x_rcc.c **** 
 648:stm32f10x_lib/STM32F10x_StdPeriph_Driver/src/stm32f10x_rcc.c **** /**
 649:stm32f10x_lib/STM32F10x_StdPeriph_Driver/src/stm32f10x_rcc.c ****   * @brief  Configures the High Speed APB clock (PCLK2).
 650:stm32f10x_lib/STM32F10x_StdPeriph_Driver/src/stm32f10x_rcc.c ****   * @param  RCC_HCLK: defines the APB2 clock divider. This clock is derived from 
 651:stm32f10x_lib/STM32F10x_StdPeriph_Driver/src/stm32f10x_rcc.c ****   *   the AHB clock (HCLK).
 652:stm32f10x_lib/STM32F10x_StdPeriph_Driver/src/stm32f10x_rcc.c ****   *   This parameter can be one of the following values:
 653:stm32f10x_lib/STM32F10x_StdPeriph_Driver/src/stm32f10x_rcc.c ****   *     @arg RCC_HCLK_Div1: APB2 clock = HCLK
 654:stm32f10x_lib/STM32F10x_StdPeriph_Driver/src/stm32f10x_rcc.c ****   *     @arg RCC_HCLK_Div2: APB2 clock = HCLK/2
 655:stm32f10x_lib/STM32F10x_StdPeriph_Driver/src/stm32f10x_rcc.c ****   *     @arg RCC_HCLK_Div4: APB2 clock = HCLK/4
 656:stm32f10x_lib/STM32F10x_StdPeriph_Driver/src/stm32f10x_rcc.c ****   *     @arg RCC_HCLK_Div8: APB2 clock = HCLK/8
 657:stm32f10x_lib/STM32F10x_StdPeriph_Driver/src/stm32f10x_rcc.c ****   *     @arg RCC_HCLK_Div16: APB2 clock = HCLK/16
 658:stm32f10x_lib/STM32F10x_StdPeriph_Driver/src/stm32f10x_rcc.c ****   * @retval None
 659:stm32f10x_lib/STM32F10x_StdPeriph_Driver/src/stm32f10x_rcc.c ****   */
 660:stm32f10x_lib/STM32F10x_StdPeriph_Driver/src/stm32f10x_rcc.c **** void RCC_PCLK2Config(uint32_t RCC_HCLK)
 661:stm32f10x_lib/STM32F10x_StdPeriph_Driver/src/stm32f10x_rcc.c **** {
 605              		.loc 1 661 1 is_stmt 1 view -0
 606              		.cfi_startproc
 607              		@ args = 0, pretend = 0, frame = 0
 608              		@ frame_needed = 0, uses_anonymous_args = 0
 609              		@ link register save eliminated.
 662:stm32f10x_lib/STM32F10x_StdPeriph_Driver/src/stm32f10x_rcc.c ****   uint32_t tmpreg = 0;
 610              		.loc 1 662 3 view .LVU123
 663:stm32f10x_lib/STM32F10x_StdPeriph_Driver/src/stm32f10x_rcc.c ****   /* Check the parameters */
 664:stm32f10x_lib/STM32F10x_StdPeriph_Driver/src/stm32f10x_rcc.c ****   assert_param(IS_RCC_PCLK(RCC_HCLK));
 611              		.loc 1 664 3 view .LVU124
 665:stm32f10x_lib/STM32F10x_StdPeriph_Driver/src/stm32f10x_rcc.c ****   tmpreg = RCC->CFGR;
 612              		.loc 1 665 3 view .LVU125
 613              	@ stm32f10x_lib/STM32F10x_StdPeriph_Driver/src/stm32f10x_rcc.c:665:   tmpreg = RCC->CFGR;
 614              		.loc 1 665 10 is_stmt 0 view .LVU126
 615 0120 034A     		ldr	r2, .L39	@ tmp115,
 616 0122 5368     		ldr	r3, [r2, #4]	@ tmpreg, MEM[(struct RCC_TypeDef *)1073876992B].CFGR
 617              	.LVL29:
 666:stm32f10x_lib/STM32F10x_StdPeriph_Driver/src/stm32f10x_rcc.c ****   /* Clear PPRE2[2:0] bits */
 667:stm32f10x_lib/STM32F10x_StdPeriph_Driver/src/stm32f10x_rcc.c ****   tmpreg &= CFGR_PPRE2_Reset_Mask;
 618              		.loc 1 667 3 is_stmt 1 view .LVU127
 619              	@ stm32f10x_lib/STM32F10x_StdPeriph_Driver/src/stm32f10x_rcc.c:667:   tmpreg &= CFGR_PPRE2_Reset_Ma
 620              		.loc 1 667 10 is_stmt 0 view .LVU128
 621 0124 23F46053 		bic	r3, r3, #14336	@ tmpreg, tmpreg,
 622              	.LVL30:
 668:stm32f10x_lib/STM32F10x_StdPeriph_Driver/src/stm32f10x_rcc.c ****   /* Set PPRE2[2:0] bits according to RCC_HCLK value */
 669:stm32f10x_lib/STM32F10x_StdPeriph_Driver/src/stm32f10x_rcc.c ****   tmpreg |= RCC_HCLK << 3;
 623              		.loc 1 669 3 is_stmt 1 view .LVU129
 624              	@ stm32f10x_lib/STM32F10x_StdPeriph_Driver/src/stm32f10x_rcc.c:669:   tmpreg |= RCC_HCLK << 3;
 625              		.loc 1 669 10 is_stmt 0 view .LVU130
 626 0128 43EAC003 		orr	r3, r3, r0, lsl #3	@ tmpreg, tmpreg, tmp118,
 627              	.LVL31:
 670:stm32f10x_lib/STM32F10x_StdPeriph_Driver/src/stm32f10x_rcc.c ****   /* Store the new value */
 671:stm32f10x_lib/STM32F10x_StdPeriph_Driver/src/stm32f10x_rcc.c ****   RCC->CFGR = tmpreg;
 628              		.loc 1 671 3 is_stmt 1 view .LVU131
 629              	@ stm32f10x_lib/STM32F10x_StdPeriph_Driver/src/stm32f10x_rcc.c:671:   RCC->CFGR = tmpreg;
 630              		.loc 1 671 13 is_stmt 0 view .LVU132
 631 012c 5360     		str	r3, [r2, #4]	@ tmpreg, MEM[(struct RCC_TypeDef *)1073876992B].CFGR
ARM GAS  /tmp/cc6sR8f9.s 			page 24


 632              	@ stm32f10x_lib/STM32F10x_StdPeriph_Driver/src/stm32f10x_rcc.c:672: }
 672:stm32f10x_lib/STM32F10x_StdPeriph_Driver/src/stm32f10x_rcc.c **** }
 633              		.loc 1 672 1 view .LVU133
 634 012e 7047     		bx	lr	@
 635              	.L40:
 636              		.align	2
 637              	.L39:
 638 0130 00100240 		.word	1073876992
 639              		.cfi_endproc
 640              	.LFE41:
 641              		.size	RCC_PCLK2Config, .-RCC_PCLK2Config
 642              		.align	1
 643              		.global	RCC_ITConfig
 644              		.syntax unified
 645              		.thumb
 646              		.thumb_func
 647              		.fpu softvfp
 648              		.type	RCC_ITConfig, %function
 649              	RCC_ITConfig:
 650              	.LVL32:
 651              	.LFB42:
 673:stm32f10x_lib/STM32F10x_StdPeriph_Driver/src/stm32f10x_rcc.c **** 
 674:stm32f10x_lib/STM32F10x_StdPeriph_Driver/src/stm32f10x_rcc.c **** /**
 675:stm32f10x_lib/STM32F10x_StdPeriph_Driver/src/stm32f10x_rcc.c ****   * @brief  Enables or disables the specified RCC interrupts.
 676:stm32f10x_lib/STM32F10x_StdPeriph_Driver/src/stm32f10x_rcc.c ****   * @param  RCC_IT: specifies the RCC interrupt sources to be enabled or disabled.
 677:stm32f10x_lib/STM32F10x_StdPeriph_Driver/src/stm32f10x_rcc.c ****   * 
 678:stm32f10x_lib/STM32F10x_StdPeriph_Driver/src/stm32f10x_rcc.c ****   *   For @b STM32_Connectivity_line_devices, this parameter can be any combination
 679:stm32f10x_lib/STM32F10x_StdPeriph_Driver/src/stm32f10x_rcc.c ****   *   of the following values        
 680:stm32f10x_lib/STM32F10x_StdPeriph_Driver/src/stm32f10x_rcc.c ****   *     @arg RCC_IT_LSIRDY: LSI ready interrupt
 681:stm32f10x_lib/STM32F10x_StdPeriph_Driver/src/stm32f10x_rcc.c ****   *     @arg RCC_IT_LSERDY: LSE ready interrupt
 682:stm32f10x_lib/STM32F10x_StdPeriph_Driver/src/stm32f10x_rcc.c ****   *     @arg RCC_IT_HSIRDY: HSI ready interrupt
 683:stm32f10x_lib/STM32F10x_StdPeriph_Driver/src/stm32f10x_rcc.c ****   *     @arg RCC_IT_HSERDY: HSE ready interrupt
 684:stm32f10x_lib/STM32F10x_StdPeriph_Driver/src/stm32f10x_rcc.c ****   *     @arg RCC_IT_PLLRDY: PLL ready interrupt
 685:stm32f10x_lib/STM32F10x_StdPeriph_Driver/src/stm32f10x_rcc.c ****   *     @arg RCC_IT_PLL2RDY: PLL2 ready interrupt
 686:stm32f10x_lib/STM32F10x_StdPeriph_Driver/src/stm32f10x_rcc.c ****   *     @arg RCC_IT_PLL3RDY: PLL3 ready interrupt
 687:stm32f10x_lib/STM32F10x_StdPeriph_Driver/src/stm32f10x_rcc.c ****   * 
 688:stm32f10x_lib/STM32F10x_StdPeriph_Driver/src/stm32f10x_rcc.c ****   *   For @b other_STM32_devices, this parameter can be any combination of the 
 689:stm32f10x_lib/STM32F10x_StdPeriph_Driver/src/stm32f10x_rcc.c ****   *   following values        
 690:stm32f10x_lib/STM32F10x_StdPeriph_Driver/src/stm32f10x_rcc.c ****   *     @arg RCC_IT_LSIRDY: LSI ready interrupt
 691:stm32f10x_lib/STM32F10x_StdPeriph_Driver/src/stm32f10x_rcc.c ****   *     @arg RCC_IT_LSERDY: LSE ready interrupt
 692:stm32f10x_lib/STM32F10x_StdPeriph_Driver/src/stm32f10x_rcc.c ****   *     @arg RCC_IT_HSIRDY: HSI ready interrupt
 693:stm32f10x_lib/STM32F10x_StdPeriph_Driver/src/stm32f10x_rcc.c ****   *     @arg RCC_IT_HSERDY: HSE ready interrupt
 694:stm32f10x_lib/STM32F10x_StdPeriph_Driver/src/stm32f10x_rcc.c ****   *     @arg RCC_IT_PLLRDY: PLL ready interrupt
 695:stm32f10x_lib/STM32F10x_StdPeriph_Driver/src/stm32f10x_rcc.c ****   *       
 696:stm32f10x_lib/STM32F10x_StdPeriph_Driver/src/stm32f10x_rcc.c ****   * @param  NewState: new state of the specified RCC interrupts.
 697:stm32f10x_lib/STM32F10x_StdPeriph_Driver/src/stm32f10x_rcc.c ****   *   This parameter can be: ENABLE or DISABLE.
 698:stm32f10x_lib/STM32F10x_StdPeriph_Driver/src/stm32f10x_rcc.c ****   * @retval None
 699:stm32f10x_lib/STM32F10x_StdPeriph_Driver/src/stm32f10x_rcc.c ****   */
 700:stm32f10x_lib/STM32F10x_StdPeriph_Driver/src/stm32f10x_rcc.c **** void RCC_ITConfig(uint8_t RCC_IT, FunctionalState NewState)
 701:stm32f10x_lib/STM32F10x_StdPeriph_Driver/src/stm32f10x_rcc.c **** {
 652              		.loc 1 701 1 is_stmt 1 view -0
 653              		.cfi_startproc
 654              		@ args = 0, pretend = 0, frame = 0
 655              		@ frame_needed = 0, uses_anonymous_args = 0
 656              		@ link register save eliminated.
 702:stm32f10x_lib/STM32F10x_StdPeriph_Driver/src/stm32f10x_rcc.c ****   /* Check the parameters */
 703:stm32f10x_lib/STM32F10x_StdPeriph_Driver/src/stm32f10x_rcc.c ****   assert_param(IS_RCC_IT(RCC_IT));
ARM GAS  /tmp/cc6sR8f9.s 			page 25


 657              		.loc 1 703 3 view .LVU135
 704:stm32f10x_lib/STM32F10x_StdPeriph_Driver/src/stm32f10x_rcc.c ****   assert_param(IS_FUNCTIONAL_STATE(NewState));
 658              		.loc 1 704 3 view .LVU136
 705:stm32f10x_lib/STM32F10x_StdPeriph_Driver/src/stm32f10x_rcc.c ****   if (NewState != DISABLE)
 659              		.loc 1 705 3 view .LVU137
 660 0134 044B     		ldr	r3, .L45	@ tmp131,
 661              	@ stm32f10x_lib/STM32F10x_StdPeriph_Driver/src/stm32f10x_rcc.c:708:     *(__IO uint8_t *) CIR_BYTE2
 706:stm32f10x_lib/STM32F10x_StdPeriph_Driver/src/stm32f10x_rcc.c ****   {
 707:stm32f10x_lib/STM32F10x_StdPeriph_Driver/src/stm32f10x_rcc.c ****     /* Perform Byte access to RCC_CIR bits to enable the selected interrupts */
 708:stm32f10x_lib/STM32F10x_StdPeriph_Driver/src/stm32f10x_rcc.c ****     *(__IO uint8_t *) CIR_BYTE2_ADDRESS |= RCC_IT;
 662              		.loc 1 708 41 is_stmt 0 view .LVU138
 663 0136 1A78     		ldrb	r2, [r3]	@ zero_extendqisi2	@ MEM[(volatile uint8_t *)1073877001B],
 664              	@ stm32f10x_lib/STM32F10x_StdPeriph_Driver/src/stm32f10x_rcc.c:705:   if (NewState != DISABLE)
 705:stm32f10x_lib/STM32F10x_StdPeriph_Driver/src/stm32f10x_rcc.c ****   if (NewState != DISABLE)
 665              		.loc 1 705 6 view .LVU139
 666 0138 11B1     		cbz	r1, .L42	@ tmp133,
 667              		.loc 1 708 5 is_stmt 1 view .LVU140
 668              	@ stm32f10x_lib/STM32F10x_StdPeriph_Driver/src/stm32f10x_rcc.c:708:     *(__IO uint8_t *) CIR_BYTE2
 669              		.loc 1 708 41 is_stmt 0 view .LVU141
 670 013a 1043     		orrs	r0, r0, r2	@, _2, RCC_IT, MEM[(volatile uint8_t *)1073877001B]
 671              	.LVL33:
 672              	.L44:
 673              	@ stm32f10x_lib/STM32F10x_StdPeriph_Driver/src/stm32f10x_rcc.c:713:     *(__IO uint8_t *) CIR_BYTE2
 709:stm32f10x_lib/STM32F10x_StdPeriph_Driver/src/stm32f10x_rcc.c ****   }
 710:stm32f10x_lib/STM32F10x_StdPeriph_Driver/src/stm32f10x_rcc.c ****   else
 711:stm32f10x_lib/STM32F10x_StdPeriph_Driver/src/stm32f10x_rcc.c ****   {
 712:stm32f10x_lib/STM32F10x_StdPeriph_Driver/src/stm32f10x_rcc.c ****     /* Perform Byte access to RCC_CIR bits to disable the selected interrupts */
 713:stm32f10x_lib/STM32F10x_StdPeriph_Driver/src/stm32f10x_rcc.c ****     *(__IO uint8_t *) CIR_BYTE2_ADDRESS &= (uint8_t)~RCC_IT;
 674              		.loc 1 713 41 view .LVU142
 675 013c 1870     		strb	r0, [r3]	@ _5,
 676              	@ stm32f10x_lib/STM32F10x_StdPeriph_Driver/src/stm32f10x_rcc.c:715: }
 714:stm32f10x_lib/STM32F10x_StdPeriph_Driver/src/stm32f10x_rcc.c ****   }
 715:stm32f10x_lib/STM32F10x_StdPeriph_Driver/src/stm32f10x_rcc.c **** }
 677              		.loc 1 715 1 view .LVU143
 678 013e 7047     		bx	lr	@
 679              	.LVL34:
 680              	.L42:
 713:stm32f10x_lib/STM32F10x_StdPeriph_Driver/src/stm32f10x_rcc.c ****   }
 681              		.loc 1 713 5 is_stmt 1 view .LVU144
 682              	@ stm32f10x_lib/STM32F10x_StdPeriph_Driver/src/stm32f10x_rcc.c:713:     *(__IO uint8_t *) CIR_BYTE2
 713:stm32f10x_lib/STM32F10x_StdPeriph_Driver/src/stm32f10x_rcc.c ****   }
 683              		.loc 1 713 41 is_stmt 0 view .LVU145
 684 0140 22EA0000 		bic	r0, r2, r0	@ _5, MEM[(volatile uint8_t *)1073877001B], RCC_IT
 685              	.LVL35:
 713:stm32f10x_lib/STM32F10x_StdPeriph_Driver/src/stm32f10x_rcc.c ****   }
 686              		.loc 1 713 41 view .LVU146
 687 0144 FAE7     		b	.L44		@
 688              	.L46:
 689 0146 00BF     		.align	2
 690              	.L45:
 691 0148 09100240 		.word	1073877001
 692              		.cfi_endproc
 693              	.LFE42:
 694              		.size	RCC_ITConfig, .-RCC_ITConfig
 695              		.align	1
 696              		.global	RCC_USBCLKConfig
 697              		.syntax unified
ARM GAS  /tmp/cc6sR8f9.s 			page 26


 698              		.thumb
 699              		.thumb_func
 700              		.fpu softvfp
 701              		.type	RCC_USBCLKConfig, %function
 702              	RCC_USBCLKConfig:
 703              	.LVL36:
 704              	.LFB43:
 716:stm32f10x_lib/STM32F10x_StdPeriph_Driver/src/stm32f10x_rcc.c **** 
 717:stm32f10x_lib/STM32F10x_StdPeriph_Driver/src/stm32f10x_rcc.c **** #ifndef STM32F10X_CL
 718:stm32f10x_lib/STM32F10x_StdPeriph_Driver/src/stm32f10x_rcc.c **** /**
 719:stm32f10x_lib/STM32F10x_StdPeriph_Driver/src/stm32f10x_rcc.c ****   * @brief  Configures the USB clock (USBCLK).
 720:stm32f10x_lib/STM32F10x_StdPeriph_Driver/src/stm32f10x_rcc.c ****   * @param  RCC_USBCLKSource: specifies the USB clock source. This clock is 
 721:stm32f10x_lib/STM32F10x_StdPeriph_Driver/src/stm32f10x_rcc.c ****   *   derived from the PLL output.
 722:stm32f10x_lib/STM32F10x_StdPeriph_Driver/src/stm32f10x_rcc.c ****   *   This parameter can be one of the following values:
 723:stm32f10x_lib/STM32F10x_StdPeriph_Driver/src/stm32f10x_rcc.c ****   *     @arg RCC_USBCLKSource_PLLCLK_1Div5: PLL clock divided by 1,5 selected as USB 
 724:stm32f10x_lib/STM32F10x_StdPeriph_Driver/src/stm32f10x_rcc.c ****   *                                     clock source
 725:stm32f10x_lib/STM32F10x_StdPeriph_Driver/src/stm32f10x_rcc.c ****   *     @arg RCC_USBCLKSource_PLLCLK_Div1: PLL clock selected as USB clock source
 726:stm32f10x_lib/STM32F10x_StdPeriph_Driver/src/stm32f10x_rcc.c ****   * @retval None
 727:stm32f10x_lib/STM32F10x_StdPeriph_Driver/src/stm32f10x_rcc.c ****   */
 728:stm32f10x_lib/STM32F10x_StdPeriph_Driver/src/stm32f10x_rcc.c **** void RCC_USBCLKConfig(uint32_t RCC_USBCLKSource)
 729:stm32f10x_lib/STM32F10x_StdPeriph_Driver/src/stm32f10x_rcc.c **** {
 705              		.loc 1 729 1 is_stmt 1 view -0
 706              		.cfi_startproc
 707              		@ args = 0, pretend = 0, frame = 0
 708              		@ frame_needed = 0, uses_anonymous_args = 0
 709              		@ link register save eliminated.
 730:stm32f10x_lib/STM32F10x_StdPeriph_Driver/src/stm32f10x_rcc.c ****   /* Check the parameters */
 731:stm32f10x_lib/STM32F10x_StdPeriph_Driver/src/stm32f10x_rcc.c ****   assert_param(IS_RCC_USBCLK_SOURCE(RCC_USBCLKSource));
 710              		.loc 1 731 3 view .LVU148
 732:stm32f10x_lib/STM32F10x_StdPeriph_Driver/src/stm32f10x_rcc.c **** 
 733:stm32f10x_lib/STM32F10x_StdPeriph_Driver/src/stm32f10x_rcc.c ****   *(__IO uint32_t *) CFGR_USBPRE_BB = RCC_USBCLKSource;
 711              		.loc 1 733 3 view .LVU149
 712              	@ stm32f10x_lib/STM32F10x_StdPeriph_Driver/src/stm32f10x_rcc.c:733:   *(__IO uint32_t *) CFGR_USBPR
 713              		.loc 1 733 37 is_stmt 0 view .LVU150
 714 014c 014B     		ldr	r3, .L48	@ tmp111,
 715 014e 1860     		str	r0, [r3]	@ RCC_USBCLKSource, MEM[(volatile uint32_t *)1111621848B]
 716              	@ stm32f10x_lib/STM32F10x_StdPeriph_Driver/src/stm32f10x_rcc.c:734: }
 734:stm32f10x_lib/STM32F10x_StdPeriph_Driver/src/stm32f10x_rcc.c **** }
 717              		.loc 1 734 1 view .LVU151
 718 0150 7047     		bx	lr	@
 719              	.L49:
 720 0152 00BF     		.align	2
 721              	.L48:
 722 0154 D8004242 		.word	1111621848
 723              		.cfi_endproc
 724              	.LFE43:
 725              		.size	RCC_USBCLKConfig, .-RCC_USBCLKConfig
 726              		.align	1
 727              		.global	RCC_ADCCLKConfig
 728              		.syntax unified
 729              		.thumb
 730              		.thumb_func
 731              		.fpu softvfp
 732              		.type	RCC_ADCCLKConfig, %function
 733              	RCC_ADCCLKConfig:
 734              	.LVL37:
 735              	.LFB44:
ARM GAS  /tmp/cc6sR8f9.s 			page 27


 735:stm32f10x_lib/STM32F10x_StdPeriph_Driver/src/stm32f10x_rcc.c **** #else
 736:stm32f10x_lib/STM32F10x_StdPeriph_Driver/src/stm32f10x_rcc.c **** /**
 737:stm32f10x_lib/STM32F10x_StdPeriph_Driver/src/stm32f10x_rcc.c ****   * @brief  Configures the USB OTG FS clock (OTGFSCLK).
 738:stm32f10x_lib/STM32F10x_StdPeriph_Driver/src/stm32f10x_rcc.c ****   *   This function applies only to STM32 Connectivity line devices.
 739:stm32f10x_lib/STM32F10x_StdPeriph_Driver/src/stm32f10x_rcc.c ****   * @param  RCC_OTGFSCLKSource: specifies the USB OTG FS clock source.
 740:stm32f10x_lib/STM32F10x_StdPeriph_Driver/src/stm32f10x_rcc.c ****   *   This clock is derived from the PLL output.
 741:stm32f10x_lib/STM32F10x_StdPeriph_Driver/src/stm32f10x_rcc.c ****   *   This parameter can be one of the following values:
 742:stm32f10x_lib/STM32F10x_StdPeriph_Driver/src/stm32f10x_rcc.c ****   *     @arg  RCC_OTGFSCLKSource_PLLVCO_Div3: PLL VCO clock divided by 2 selected as USB OTG FS clo
 743:stm32f10x_lib/STM32F10x_StdPeriph_Driver/src/stm32f10x_rcc.c ****   *     @arg  RCC_OTGFSCLKSource_PLLVCO_Div2: PLL VCO clock divided by 2 selected as USB OTG FS clo
 744:stm32f10x_lib/STM32F10x_StdPeriph_Driver/src/stm32f10x_rcc.c ****   * @retval None
 745:stm32f10x_lib/STM32F10x_StdPeriph_Driver/src/stm32f10x_rcc.c ****   */
 746:stm32f10x_lib/STM32F10x_StdPeriph_Driver/src/stm32f10x_rcc.c **** void RCC_OTGFSCLKConfig(uint32_t RCC_OTGFSCLKSource)
 747:stm32f10x_lib/STM32F10x_StdPeriph_Driver/src/stm32f10x_rcc.c **** {
 748:stm32f10x_lib/STM32F10x_StdPeriph_Driver/src/stm32f10x_rcc.c ****   /* Check the parameters */
 749:stm32f10x_lib/STM32F10x_StdPeriph_Driver/src/stm32f10x_rcc.c ****   assert_param(IS_RCC_OTGFSCLK_SOURCE(RCC_OTGFSCLKSource));
 750:stm32f10x_lib/STM32F10x_StdPeriph_Driver/src/stm32f10x_rcc.c **** 
 751:stm32f10x_lib/STM32F10x_StdPeriph_Driver/src/stm32f10x_rcc.c ****   *(__IO uint32_t *) CFGR_OTGFSPRE_BB = RCC_OTGFSCLKSource;
 752:stm32f10x_lib/STM32F10x_StdPeriph_Driver/src/stm32f10x_rcc.c **** }
 753:stm32f10x_lib/STM32F10x_StdPeriph_Driver/src/stm32f10x_rcc.c **** #endif /* STM32F10X_CL */ 
 754:stm32f10x_lib/STM32F10x_StdPeriph_Driver/src/stm32f10x_rcc.c **** 
 755:stm32f10x_lib/STM32F10x_StdPeriph_Driver/src/stm32f10x_rcc.c **** /**
 756:stm32f10x_lib/STM32F10x_StdPeriph_Driver/src/stm32f10x_rcc.c ****   * @brief  Configures the ADC clock (ADCCLK).
 757:stm32f10x_lib/STM32F10x_StdPeriph_Driver/src/stm32f10x_rcc.c ****   * @param  RCC_PCLK2: defines the ADC clock divider. This clock is derived from 
 758:stm32f10x_lib/STM32F10x_StdPeriph_Driver/src/stm32f10x_rcc.c ****   *   the APB2 clock (PCLK2).
 759:stm32f10x_lib/STM32F10x_StdPeriph_Driver/src/stm32f10x_rcc.c ****   *   This parameter can be one of the following values:
 760:stm32f10x_lib/STM32F10x_StdPeriph_Driver/src/stm32f10x_rcc.c ****   *     @arg RCC_PCLK2_Div2: ADC clock = PCLK2/2
 761:stm32f10x_lib/STM32F10x_StdPeriph_Driver/src/stm32f10x_rcc.c ****   *     @arg RCC_PCLK2_Div4: ADC clock = PCLK2/4
 762:stm32f10x_lib/STM32F10x_StdPeriph_Driver/src/stm32f10x_rcc.c ****   *     @arg RCC_PCLK2_Div6: ADC clock = PCLK2/6
 763:stm32f10x_lib/STM32F10x_StdPeriph_Driver/src/stm32f10x_rcc.c ****   *     @arg RCC_PCLK2_Div8: ADC clock = PCLK2/8
 764:stm32f10x_lib/STM32F10x_StdPeriph_Driver/src/stm32f10x_rcc.c ****   * @retval None
 765:stm32f10x_lib/STM32F10x_StdPeriph_Driver/src/stm32f10x_rcc.c ****   */
 766:stm32f10x_lib/STM32F10x_StdPeriph_Driver/src/stm32f10x_rcc.c **** void RCC_ADCCLKConfig(uint32_t RCC_PCLK2)
 767:stm32f10x_lib/STM32F10x_StdPeriph_Driver/src/stm32f10x_rcc.c **** {
 736              		.loc 1 767 1 is_stmt 1 view -0
 737              		.cfi_startproc
 738              		@ args = 0, pretend = 0, frame = 0
 739              		@ frame_needed = 0, uses_anonymous_args = 0
 740              		@ link register save eliminated.
 768:stm32f10x_lib/STM32F10x_StdPeriph_Driver/src/stm32f10x_rcc.c ****   uint32_t tmpreg = 0;
 741              		.loc 1 768 3 view .LVU153
 769:stm32f10x_lib/STM32F10x_StdPeriph_Driver/src/stm32f10x_rcc.c ****   /* Check the parameters */
 770:stm32f10x_lib/STM32F10x_StdPeriph_Driver/src/stm32f10x_rcc.c ****   assert_param(IS_RCC_ADCCLK(RCC_PCLK2));
 742              		.loc 1 770 3 view .LVU154
 771:stm32f10x_lib/STM32F10x_StdPeriph_Driver/src/stm32f10x_rcc.c ****   tmpreg = RCC->CFGR;
 743              		.loc 1 771 3 view .LVU155
 744              	@ stm32f10x_lib/STM32F10x_StdPeriph_Driver/src/stm32f10x_rcc.c:771:   tmpreg = RCC->CFGR;
 745              		.loc 1 771 10 is_stmt 0 view .LVU156
 746 0158 034A     		ldr	r2, .L51	@ tmp114,
 747 015a 5368     		ldr	r3, [r2, #4]	@ tmpreg, MEM[(struct RCC_TypeDef *)1073876992B].CFGR
 748              	.LVL38:
 772:stm32f10x_lib/STM32F10x_StdPeriph_Driver/src/stm32f10x_rcc.c ****   /* Clear ADCPRE[1:0] bits */
 773:stm32f10x_lib/STM32F10x_StdPeriph_Driver/src/stm32f10x_rcc.c ****   tmpreg &= CFGR_ADCPRE_Reset_Mask;
 749              		.loc 1 773 3 is_stmt 1 view .LVU157
 750              	@ stm32f10x_lib/STM32F10x_StdPeriph_Driver/src/stm32f10x_rcc.c:773:   tmpreg &= CFGR_ADCPRE_Reset_M
 751              		.loc 1 773 10 is_stmt 0 view .LVU158
 752 015c 23F44043 		bic	r3, r3, #49152	@ tmpreg, tmpreg,
 753              	.LVL39:
ARM GAS  /tmp/cc6sR8f9.s 			page 28


 774:stm32f10x_lib/STM32F10x_StdPeriph_Driver/src/stm32f10x_rcc.c ****   /* Set ADCPRE[1:0] bits according to RCC_PCLK2 value */
 775:stm32f10x_lib/STM32F10x_StdPeriph_Driver/src/stm32f10x_rcc.c ****   tmpreg |= RCC_PCLK2;
 754              		.loc 1 775 3 is_stmt 1 view .LVU159
 755              	@ stm32f10x_lib/STM32F10x_StdPeriph_Driver/src/stm32f10x_rcc.c:775:   tmpreg |= RCC_PCLK2;
 756              		.loc 1 775 10 is_stmt 0 view .LVU160
 757 0160 0343     		orrs	r3, r3, r0	@, tmpreg, tmpreg, tmp116
 758              	.LVL40:
 776:stm32f10x_lib/STM32F10x_StdPeriph_Driver/src/stm32f10x_rcc.c ****   /* Store the new value */
 777:stm32f10x_lib/STM32F10x_StdPeriph_Driver/src/stm32f10x_rcc.c ****   RCC->CFGR = tmpreg;
 759              		.loc 1 777 3 is_stmt 1 view .LVU161
 760              	@ stm32f10x_lib/STM32F10x_StdPeriph_Driver/src/stm32f10x_rcc.c:777:   RCC->CFGR = tmpreg;
 761              		.loc 1 777 13 is_stmt 0 view .LVU162
 762 0162 5360     		str	r3, [r2, #4]	@ tmpreg, MEM[(struct RCC_TypeDef *)1073876992B].CFGR
 763              	@ stm32f10x_lib/STM32F10x_StdPeriph_Driver/src/stm32f10x_rcc.c:778: }
 778:stm32f10x_lib/STM32F10x_StdPeriph_Driver/src/stm32f10x_rcc.c **** }
 764              		.loc 1 778 1 view .LVU163
 765 0164 7047     		bx	lr	@
 766              	.L52:
 767 0166 00BF     		.align	2
 768              	.L51:
 769 0168 00100240 		.word	1073876992
 770              		.cfi_endproc
 771              	.LFE44:
 772              		.size	RCC_ADCCLKConfig, .-RCC_ADCCLKConfig
 773              		.align	1
 774              		.global	RCC_LSEConfig
 775              		.syntax unified
 776              		.thumb
 777              		.thumb_func
 778              		.fpu softvfp
 779              		.type	RCC_LSEConfig, %function
 780              	RCC_LSEConfig:
 781              	.LVL41:
 782              	.LFB45:
 779:stm32f10x_lib/STM32F10x_StdPeriph_Driver/src/stm32f10x_rcc.c **** 
 780:stm32f10x_lib/STM32F10x_StdPeriph_Driver/src/stm32f10x_rcc.c **** #ifdef STM32F10X_CL
 781:stm32f10x_lib/STM32F10x_StdPeriph_Driver/src/stm32f10x_rcc.c **** /**
 782:stm32f10x_lib/STM32F10x_StdPeriph_Driver/src/stm32f10x_rcc.c ****   * @brief  Configures the I2S2 clock source(I2S2CLK).
 783:stm32f10x_lib/STM32F10x_StdPeriph_Driver/src/stm32f10x_rcc.c ****   * @note
 784:stm32f10x_lib/STM32F10x_StdPeriph_Driver/src/stm32f10x_rcc.c ****   *   - This function must be called before enabling I2S2 APB clock.
 785:stm32f10x_lib/STM32F10x_StdPeriph_Driver/src/stm32f10x_rcc.c ****   *   - This function applies only to STM32 Connectivity line devices.
 786:stm32f10x_lib/STM32F10x_StdPeriph_Driver/src/stm32f10x_rcc.c ****   * @param  RCC_I2S2CLKSource: specifies the I2S2 clock source.
 787:stm32f10x_lib/STM32F10x_StdPeriph_Driver/src/stm32f10x_rcc.c ****   *   This parameter can be one of the following values:
 788:stm32f10x_lib/STM32F10x_StdPeriph_Driver/src/stm32f10x_rcc.c ****   *     @arg RCC_I2S2CLKSource_SYSCLK: system clock selected as I2S2 clock entry
 789:stm32f10x_lib/STM32F10x_StdPeriph_Driver/src/stm32f10x_rcc.c ****   *     @arg RCC_I2S2CLKSource_PLL3_VCO: PLL3 VCO clock selected as I2S2 clock entry
 790:stm32f10x_lib/STM32F10x_StdPeriph_Driver/src/stm32f10x_rcc.c ****   * @retval None
 791:stm32f10x_lib/STM32F10x_StdPeriph_Driver/src/stm32f10x_rcc.c ****   */
 792:stm32f10x_lib/STM32F10x_StdPeriph_Driver/src/stm32f10x_rcc.c **** void RCC_I2S2CLKConfig(uint32_t RCC_I2S2CLKSource)
 793:stm32f10x_lib/STM32F10x_StdPeriph_Driver/src/stm32f10x_rcc.c **** {
 794:stm32f10x_lib/STM32F10x_StdPeriph_Driver/src/stm32f10x_rcc.c ****   /* Check the parameters */
 795:stm32f10x_lib/STM32F10x_StdPeriph_Driver/src/stm32f10x_rcc.c ****   assert_param(IS_RCC_I2S2CLK_SOURCE(RCC_I2S2CLKSource));
 796:stm32f10x_lib/STM32F10x_StdPeriph_Driver/src/stm32f10x_rcc.c **** 
 797:stm32f10x_lib/STM32F10x_StdPeriph_Driver/src/stm32f10x_rcc.c ****   *(__IO uint32_t *) CFGR2_I2S2SRC_BB = RCC_I2S2CLKSource;
 798:stm32f10x_lib/STM32F10x_StdPeriph_Driver/src/stm32f10x_rcc.c **** }
 799:stm32f10x_lib/STM32F10x_StdPeriph_Driver/src/stm32f10x_rcc.c **** 
 800:stm32f10x_lib/STM32F10x_StdPeriph_Driver/src/stm32f10x_rcc.c **** /**
 801:stm32f10x_lib/STM32F10x_StdPeriph_Driver/src/stm32f10x_rcc.c ****   * @brief  Configures the I2S3 clock source(I2S2CLK).
ARM GAS  /tmp/cc6sR8f9.s 			page 29


 802:stm32f10x_lib/STM32F10x_StdPeriph_Driver/src/stm32f10x_rcc.c ****   * @note
 803:stm32f10x_lib/STM32F10x_StdPeriph_Driver/src/stm32f10x_rcc.c ****   *   - This function must be called before enabling I2S3 APB clock.
 804:stm32f10x_lib/STM32F10x_StdPeriph_Driver/src/stm32f10x_rcc.c ****   *   - This function applies only to STM32 Connectivity line devices.
 805:stm32f10x_lib/STM32F10x_StdPeriph_Driver/src/stm32f10x_rcc.c ****   * @param  RCC_I2S3CLKSource: specifies the I2S3 clock source.
 806:stm32f10x_lib/STM32F10x_StdPeriph_Driver/src/stm32f10x_rcc.c ****   *   This parameter can be one of the following values:
 807:stm32f10x_lib/STM32F10x_StdPeriph_Driver/src/stm32f10x_rcc.c ****   *     @arg RCC_I2S3CLKSource_SYSCLK: system clock selected as I2S3 clock entry
 808:stm32f10x_lib/STM32F10x_StdPeriph_Driver/src/stm32f10x_rcc.c ****   *     @arg RCC_I2S3CLKSource_PLL3_VCO: PLL3 VCO clock selected as I2S3 clock entry
 809:stm32f10x_lib/STM32F10x_StdPeriph_Driver/src/stm32f10x_rcc.c ****   * @retval None
 810:stm32f10x_lib/STM32F10x_StdPeriph_Driver/src/stm32f10x_rcc.c ****   */
 811:stm32f10x_lib/STM32F10x_StdPeriph_Driver/src/stm32f10x_rcc.c **** void RCC_I2S3CLKConfig(uint32_t RCC_I2S3CLKSource)
 812:stm32f10x_lib/STM32F10x_StdPeriph_Driver/src/stm32f10x_rcc.c **** {
 813:stm32f10x_lib/STM32F10x_StdPeriph_Driver/src/stm32f10x_rcc.c ****   /* Check the parameters */
 814:stm32f10x_lib/STM32F10x_StdPeriph_Driver/src/stm32f10x_rcc.c ****   assert_param(IS_RCC_I2S3CLK_SOURCE(RCC_I2S3CLKSource));
 815:stm32f10x_lib/STM32F10x_StdPeriph_Driver/src/stm32f10x_rcc.c **** 
 816:stm32f10x_lib/STM32F10x_StdPeriph_Driver/src/stm32f10x_rcc.c ****   *(__IO uint32_t *) CFGR2_I2S3SRC_BB = RCC_I2S3CLKSource;
 817:stm32f10x_lib/STM32F10x_StdPeriph_Driver/src/stm32f10x_rcc.c **** }
 818:stm32f10x_lib/STM32F10x_StdPeriph_Driver/src/stm32f10x_rcc.c **** #endif /* STM32F10X_CL */
 819:stm32f10x_lib/STM32F10x_StdPeriph_Driver/src/stm32f10x_rcc.c **** 
 820:stm32f10x_lib/STM32F10x_StdPeriph_Driver/src/stm32f10x_rcc.c **** /**
 821:stm32f10x_lib/STM32F10x_StdPeriph_Driver/src/stm32f10x_rcc.c ****   * @brief  Configures the External Low Speed oscillator (LSE).
 822:stm32f10x_lib/STM32F10x_StdPeriph_Driver/src/stm32f10x_rcc.c ****   * @param  RCC_LSE: specifies the new state of the LSE.
 823:stm32f10x_lib/STM32F10x_StdPeriph_Driver/src/stm32f10x_rcc.c ****   *   This parameter can be one of the following values:
 824:stm32f10x_lib/STM32F10x_StdPeriph_Driver/src/stm32f10x_rcc.c ****   *     @arg RCC_LSE_OFF: LSE oscillator OFF
 825:stm32f10x_lib/STM32F10x_StdPeriph_Driver/src/stm32f10x_rcc.c ****   *     @arg RCC_LSE_ON: LSE oscillator ON
 826:stm32f10x_lib/STM32F10x_StdPeriph_Driver/src/stm32f10x_rcc.c ****   *     @arg RCC_LSE_Bypass: LSE oscillator bypassed with external clock
 827:stm32f10x_lib/STM32F10x_StdPeriph_Driver/src/stm32f10x_rcc.c ****   * @retval None
 828:stm32f10x_lib/STM32F10x_StdPeriph_Driver/src/stm32f10x_rcc.c ****   */
 829:stm32f10x_lib/STM32F10x_StdPeriph_Driver/src/stm32f10x_rcc.c **** void RCC_LSEConfig(uint8_t RCC_LSE)
 830:stm32f10x_lib/STM32F10x_StdPeriph_Driver/src/stm32f10x_rcc.c **** {
 783              		.loc 1 830 1 is_stmt 1 view -0
 784              		.cfi_startproc
 785              		@ args = 0, pretend = 0, frame = 0
 786              		@ frame_needed = 0, uses_anonymous_args = 0
 787              		@ link register save eliminated.
 831:stm32f10x_lib/STM32F10x_StdPeriph_Driver/src/stm32f10x_rcc.c ****   /* Check the parameters */
 832:stm32f10x_lib/STM32F10x_StdPeriph_Driver/src/stm32f10x_rcc.c ****   assert_param(IS_RCC_LSE(RCC_LSE));
 788              		.loc 1 832 3 view .LVU165
 833:stm32f10x_lib/STM32F10x_StdPeriph_Driver/src/stm32f10x_rcc.c ****   /* Reset LSEON and LSEBYP bits before configuring the LSE ------------------*/
 834:stm32f10x_lib/STM32F10x_StdPeriph_Driver/src/stm32f10x_rcc.c ****   /* Reset LSEON bit */
 835:stm32f10x_lib/STM32F10x_StdPeriph_Driver/src/stm32f10x_rcc.c ****   *(__IO uint8_t *) BDCR_ADDRESS = RCC_LSE_OFF;
 789              		.loc 1 835 3 view .LVU166
 790              	@ stm32f10x_lib/STM32F10x_StdPeriph_Driver/src/stm32f10x_rcc.c:835:   *(__IO uint8_t *) BDCR_ADDRES
 791              		.loc 1 835 34 is_stmt 0 view .LVU167
 792 016c 0022     		movs	r2, #0	@ tmp112,
 793 016e 064B     		ldr	r3, .L57	@ tmp111,
 794              	@ stm32f10x_lib/STM32F10x_StdPeriph_Driver/src/stm32f10x_rcc.c:839:   switch(RCC_LSE)
 836:stm32f10x_lib/STM32F10x_StdPeriph_Driver/src/stm32f10x_rcc.c ****   /* Reset LSEBYP bit */
 837:stm32f10x_lib/STM32F10x_StdPeriph_Driver/src/stm32f10x_rcc.c ****   *(__IO uint8_t *) BDCR_ADDRESS = RCC_LSE_OFF;
 838:stm32f10x_lib/STM32F10x_StdPeriph_Driver/src/stm32f10x_rcc.c ****   /* Configure LSE (RCC_LSE_OFF is already covered by the code section above) */
 839:stm32f10x_lib/STM32F10x_StdPeriph_Driver/src/stm32f10x_rcc.c ****   switch(RCC_LSE)
 795              		.loc 1 839 3 view .LVU168
 796 0170 0128     		cmp	r0, #1	@ RCC_LSE,
 797              	@ stm32f10x_lib/STM32F10x_StdPeriph_Driver/src/stm32f10x_rcc.c:835:   *(__IO uint8_t *) BDCR_ADDRES
 835:stm32f10x_lib/STM32F10x_StdPeriph_Driver/src/stm32f10x_rcc.c ****   /* Reset LSEBYP bit */
 798              		.loc 1 835 34 view .LVU169
 799 0172 1A70     		strb	r2, [r3]	@ tmp112, MEM[(volatile uint8_t *)1073877024B]
 837:stm32f10x_lib/STM32F10x_StdPeriph_Driver/src/stm32f10x_rcc.c ****   /* Configure LSE (RCC_LSE_OFF is already covered by the code section above) */
ARM GAS  /tmp/cc6sR8f9.s 			page 30


 800              		.loc 1 837 3 is_stmt 1 view .LVU170
 801              	@ stm32f10x_lib/STM32F10x_StdPeriph_Driver/src/stm32f10x_rcc.c:837:   *(__IO uint8_t *) BDCR_ADDRES
 837:stm32f10x_lib/STM32F10x_StdPeriph_Driver/src/stm32f10x_rcc.c ****   /* Configure LSE (RCC_LSE_OFF is already covered by the code section above) */
 802              		.loc 1 837 34 is_stmt 0 view .LVU171
 803 0174 1A70     		strb	r2, [r3]	@ tmp112, MEM[(volatile uint8_t *)1073877024B]
 804              		.loc 1 839 3 is_stmt 1 view .LVU172
 805 0176 02D0     		beq	.L54		@,
 806 0178 0428     		cmp	r0, #4	@ RCC_LSE,
 807 017a 02D0     		beq	.L55		@,
 808 017c 7047     		bx	lr	@
 809              	.L54:
 840:stm32f10x_lib/STM32F10x_StdPeriph_Driver/src/stm32f10x_rcc.c ****   {
 841:stm32f10x_lib/STM32F10x_StdPeriph_Driver/src/stm32f10x_rcc.c ****     case RCC_LSE_ON:
 842:stm32f10x_lib/STM32F10x_StdPeriph_Driver/src/stm32f10x_rcc.c ****       /* Set LSEON bit */
 843:stm32f10x_lib/STM32F10x_StdPeriph_Driver/src/stm32f10x_rcc.c ****       *(__IO uint8_t *) BDCR_ADDRESS = RCC_LSE_ON;
 810              		.loc 1 843 7 view .LVU173
 811              	@ stm32f10x_lib/STM32F10x_StdPeriph_Driver/src/stm32f10x_rcc.c:843:       *(__IO uint8_t *) BDCR_AD
 812              		.loc 1 843 38 is_stmt 0 view .LVU174
 813 017e 1870     		strb	r0, [r3]	@ RCC_LSE, MEM[(volatile uint8_t *)1073877024B]
 844:stm32f10x_lib/STM32F10x_StdPeriph_Driver/src/stm32f10x_rcc.c ****       break;
 814              		.loc 1 844 7 is_stmt 1 view .LVU175
 815 0180 7047     		bx	lr	@
 816              	.L55:
 845:stm32f10x_lib/STM32F10x_StdPeriph_Driver/src/stm32f10x_rcc.c ****       
 846:stm32f10x_lib/STM32F10x_StdPeriph_Driver/src/stm32f10x_rcc.c ****     case RCC_LSE_Bypass:
 847:stm32f10x_lib/STM32F10x_StdPeriph_Driver/src/stm32f10x_rcc.c ****       /* Set LSEBYP and LSEON bits */
 848:stm32f10x_lib/STM32F10x_StdPeriph_Driver/src/stm32f10x_rcc.c ****       *(__IO uint8_t *) BDCR_ADDRESS = RCC_LSE_Bypass | RCC_LSE_ON;
 817              		.loc 1 848 7 view .LVU176
 818              	@ stm32f10x_lib/STM32F10x_StdPeriph_Driver/src/stm32f10x_rcc.c:848:       *(__IO uint8_t *) BDCR_AD
 819              		.loc 1 848 38 is_stmt 0 view .LVU177
 820 0182 0522     		movs	r2, #5	@ tmp121,
 821 0184 1A70     		strb	r2, [r3]	@ tmp121, MEM[(volatile uint8_t *)1073877024B]
 849:stm32f10x_lib/STM32F10x_StdPeriph_Driver/src/stm32f10x_rcc.c ****       break;            
 822              		.loc 1 849 7 is_stmt 1 view .LVU178
 823              	@ stm32f10x_lib/STM32F10x_StdPeriph_Driver/src/stm32f10x_rcc.c:854: }
 850:stm32f10x_lib/STM32F10x_StdPeriph_Driver/src/stm32f10x_rcc.c ****       
 851:stm32f10x_lib/STM32F10x_StdPeriph_Driver/src/stm32f10x_rcc.c ****     default:
 852:stm32f10x_lib/STM32F10x_StdPeriph_Driver/src/stm32f10x_rcc.c ****       break;      
 853:stm32f10x_lib/STM32F10x_StdPeriph_Driver/src/stm32f10x_rcc.c ****   }
 854:stm32f10x_lib/STM32F10x_StdPeriph_Driver/src/stm32f10x_rcc.c **** }
 824              		.loc 1 854 1 is_stmt 0 view .LVU179
 825 0186 7047     		bx	lr	@
 826              	.L58:
 827              		.align	2
 828              	.L57:
 829 0188 20100240 		.word	1073877024
 830              		.cfi_endproc
 831              	.LFE45:
 832              		.size	RCC_LSEConfig, .-RCC_LSEConfig
 833              		.align	1
 834              		.global	RCC_LSICmd
 835              		.syntax unified
 836              		.thumb
 837              		.thumb_func
 838              		.fpu softvfp
 839              		.type	RCC_LSICmd, %function
 840              	RCC_LSICmd:
ARM GAS  /tmp/cc6sR8f9.s 			page 31


 841              	.LVL42:
 842              	.LFB46:
 855:stm32f10x_lib/STM32F10x_StdPeriph_Driver/src/stm32f10x_rcc.c **** 
 856:stm32f10x_lib/STM32F10x_StdPeriph_Driver/src/stm32f10x_rcc.c **** /**
 857:stm32f10x_lib/STM32F10x_StdPeriph_Driver/src/stm32f10x_rcc.c ****   * @brief  Enables or disables the Internal Low Speed oscillator (LSI).
 858:stm32f10x_lib/STM32F10x_StdPeriph_Driver/src/stm32f10x_rcc.c ****   * @note   LSI can not be disabled if the IWDG is running.
 859:stm32f10x_lib/STM32F10x_StdPeriph_Driver/src/stm32f10x_rcc.c ****   * @param  NewState: new state of the LSI. This parameter can be: ENABLE or DISABLE.
 860:stm32f10x_lib/STM32F10x_StdPeriph_Driver/src/stm32f10x_rcc.c ****   * @retval None
 861:stm32f10x_lib/STM32F10x_StdPeriph_Driver/src/stm32f10x_rcc.c ****   */
 862:stm32f10x_lib/STM32F10x_StdPeriph_Driver/src/stm32f10x_rcc.c **** void RCC_LSICmd(FunctionalState NewState)
 863:stm32f10x_lib/STM32F10x_StdPeriph_Driver/src/stm32f10x_rcc.c **** {
 843              		.loc 1 863 1 is_stmt 1 view -0
 844              		.cfi_startproc
 845              		@ args = 0, pretend = 0, frame = 0
 846              		@ frame_needed = 0, uses_anonymous_args = 0
 847              		@ link register save eliminated.
 864:stm32f10x_lib/STM32F10x_StdPeriph_Driver/src/stm32f10x_rcc.c ****   /* Check the parameters */
 865:stm32f10x_lib/STM32F10x_StdPeriph_Driver/src/stm32f10x_rcc.c ****   assert_param(IS_FUNCTIONAL_STATE(NewState));
 848              		.loc 1 865 3 view .LVU181
 866:stm32f10x_lib/STM32F10x_StdPeriph_Driver/src/stm32f10x_rcc.c ****   *(__IO uint32_t *) CSR_LSION_BB = (uint32_t)NewState;
 849              		.loc 1 866 3 view .LVU182
 850              	@ stm32f10x_lib/STM32F10x_StdPeriph_Driver/src/stm32f10x_rcc.c:866:   *(__IO uint32_t *) CSR_LSION_
 851              		.loc 1 866 35 is_stmt 0 view .LVU183
 852 018c 014B     		ldr	r3, .L60	@ tmp112,
 853 018e 1860     		str	r0, [r3]	@ NewState, MEM[(volatile uint32_t *)1111622784B]
 854              	@ stm32f10x_lib/STM32F10x_StdPeriph_Driver/src/stm32f10x_rcc.c:867: }
 867:stm32f10x_lib/STM32F10x_StdPeriph_Driver/src/stm32f10x_rcc.c **** }
 855              		.loc 1 867 1 view .LVU184
 856 0190 7047     		bx	lr	@
 857              	.L61:
 858 0192 00BF     		.align	2
 859              	.L60:
 860 0194 80044242 		.word	1111622784
 861              		.cfi_endproc
 862              	.LFE46:
 863              		.size	RCC_LSICmd, .-RCC_LSICmd
 864              		.align	1
 865              		.global	RCC_RTCCLKConfig
 866              		.syntax unified
 867              		.thumb
 868              		.thumb_func
 869              		.fpu softvfp
 870              		.type	RCC_RTCCLKConfig, %function
 871              	RCC_RTCCLKConfig:
 872              	.LVL43:
 873              	.LFB47:
 868:stm32f10x_lib/STM32F10x_StdPeriph_Driver/src/stm32f10x_rcc.c **** 
 869:stm32f10x_lib/STM32F10x_StdPeriph_Driver/src/stm32f10x_rcc.c **** /**
 870:stm32f10x_lib/STM32F10x_StdPeriph_Driver/src/stm32f10x_rcc.c ****   * @brief  Configures the RTC clock (RTCCLK).
 871:stm32f10x_lib/STM32F10x_StdPeriph_Driver/src/stm32f10x_rcc.c ****   * @note   Once the RTC clock is selected it can't be changed unless the Backup domain is reset.
 872:stm32f10x_lib/STM32F10x_StdPeriph_Driver/src/stm32f10x_rcc.c ****   * @param  RCC_RTCCLKSource: specifies the RTC clock source.
 873:stm32f10x_lib/STM32F10x_StdPeriph_Driver/src/stm32f10x_rcc.c ****   *   This parameter can be one of the following values:
 874:stm32f10x_lib/STM32F10x_StdPeriph_Driver/src/stm32f10x_rcc.c ****   *     @arg RCC_RTCCLKSource_LSE: LSE selected as RTC clock
 875:stm32f10x_lib/STM32F10x_StdPeriph_Driver/src/stm32f10x_rcc.c ****   *     @arg RCC_RTCCLKSource_LSI: LSI selected as RTC clock
 876:stm32f10x_lib/STM32F10x_StdPeriph_Driver/src/stm32f10x_rcc.c ****   *     @arg RCC_RTCCLKSource_HSE_Div128: HSE clock divided by 128 selected as RTC clock
 877:stm32f10x_lib/STM32F10x_StdPeriph_Driver/src/stm32f10x_rcc.c ****   * @retval None
 878:stm32f10x_lib/STM32F10x_StdPeriph_Driver/src/stm32f10x_rcc.c ****   */
ARM GAS  /tmp/cc6sR8f9.s 			page 32


 879:stm32f10x_lib/STM32F10x_StdPeriph_Driver/src/stm32f10x_rcc.c **** void RCC_RTCCLKConfig(uint32_t RCC_RTCCLKSource)
 880:stm32f10x_lib/STM32F10x_StdPeriph_Driver/src/stm32f10x_rcc.c **** {
 874              		.loc 1 880 1 is_stmt 1 view -0
 875              		.cfi_startproc
 876              		@ args = 0, pretend = 0, frame = 0
 877              		@ frame_needed = 0, uses_anonymous_args = 0
 878              		@ link register save eliminated.
 881:stm32f10x_lib/STM32F10x_StdPeriph_Driver/src/stm32f10x_rcc.c ****   /* Check the parameters */
 882:stm32f10x_lib/STM32F10x_StdPeriph_Driver/src/stm32f10x_rcc.c ****   assert_param(IS_RCC_RTCCLK_SOURCE(RCC_RTCCLKSource));
 879              		.loc 1 882 3 view .LVU186
 883:stm32f10x_lib/STM32F10x_StdPeriph_Driver/src/stm32f10x_rcc.c ****   /* Select the RTC clock source */
 884:stm32f10x_lib/STM32F10x_StdPeriph_Driver/src/stm32f10x_rcc.c ****   RCC->BDCR |= RCC_RTCCLKSource;
 880              		.loc 1 884 3 view .LVU187
 881              	@ stm32f10x_lib/STM32F10x_StdPeriph_Driver/src/stm32f10x_rcc.c:884:   RCC->BDCR |= RCC_RTCCLKSource
 882              		.loc 1 884 13 is_stmt 0 view .LVU188
 883 0198 024A     		ldr	r2, .L63	@ tmp113,
 884 019a 136A     		ldr	r3, [r2, #32]	@ _1, MEM[(struct RCC_TypeDef *)1073876992B].BDCR
 885 019c 0343     		orrs	r3, r3, r0	@, _2, _1, tmp115
 886 019e 1362     		str	r3, [r2, #32]	@ _2, MEM[(struct RCC_TypeDef *)1073876992B].BDCR
 887              	@ stm32f10x_lib/STM32F10x_StdPeriph_Driver/src/stm32f10x_rcc.c:885: }
 885:stm32f10x_lib/STM32F10x_StdPeriph_Driver/src/stm32f10x_rcc.c **** }
 888              		.loc 1 885 1 view .LVU189
 889 01a0 7047     		bx	lr	@
 890              	.L64:
 891 01a2 00BF     		.align	2
 892              	.L63:
 893 01a4 00100240 		.word	1073876992
 894              		.cfi_endproc
 895              	.LFE47:
 896              		.size	RCC_RTCCLKConfig, .-RCC_RTCCLKConfig
 897              		.align	1
 898              		.global	RCC_RTCCLKCmd
 899              		.syntax unified
 900              		.thumb
 901              		.thumb_func
 902              		.fpu softvfp
 903              		.type	RCC_RTCCLKCmd, %function
 904              	RCC_RTCCLKCmd:
 905              	.LVL44:
 906              	.LFB48:
 886:stm32f10x_lib/STM32F10x_StdPeriph_Driver/src/stm32f10x_rcc.c **** 
 887:stm32f10x_lib/STM32F10x_StdPeriph_Driver/src/stm32f10x_rcc.c **** /**
 888:stm32f10x_lib/STM32F10x_StdPeriph_Driver/src/stm32f10x_rcc.c ****   * @brief  Enables or disables the RTC clock.
 889:stm32f10x_lib/STM32F10x_StdPeriph_Driver/src/stm32f10x_rcc.c ****   * @note   This function must be used only after the RTC clock was selected using the RCC_RTCCLKCo
 890:stm32f10x_lib/STM32F10x_StdPeriph_Driver/src/stm32f10x_rcc.c ****   * @param  NewState: new state of the RTC clock. This parameter can be: ENABLE or DISABLE.
 891:stm32f10x_lib/STM32F10x_StdPeriph_Driver/src/stm32f10x_rcc.c ****   * @retval None
 892:stm32f10x_lib/STM32F10x_StdPeriph_Driver/src/stm32f10x_rcc.c ****   */
 893:stm32f10x_lib/STM32F10x_StdPeriph_Driver/src/stm32f10x_rcc.c **** void RCC_RTCCLKCmd(FunctionalState NewState)
 894:stm32f10x_lib/STM32F10x_StdPeriph_Driver/src/stm32f10x_rcc.c **** {
 907              		.loc 1 894 1 is_stmt 1 view -0
 908              		.cfi_startproc
 909              		@ args = 0, pretend = 0, frame = 0
 910              		@ frame_needed = 0, uses_anonymous_args = 0
 911              		@ link register save eliminated.
 895:stm32f10x_lib/STM32F10x_StdPeriph_Driver/src/stm32f10x_rcc.c ****   /* Check the parameters */
 896:stm32f10x_lib/STM32F10x_StdPeriph_Driver/src/stm32f10x_rcc.c ****   assert_param(IS_FUNCTIONAL_STATE(NewState));
 912              		.loc 1 896 3 view .LVU191
ARM GAS  /tmp/cc6sR8f9.s 			page 33


 897:stm32f10x_lib/STM32F10x_StdPeriph_Driver/src/stm32f10x_rcc.c ****   *(__IO uint32_t *) BDCR_RTCEN_BB = (uint32_t)NewState;
 913              		.loc 1 897 3 view .LVU192
 914              	@ stm32f10x_lib/STM32F10x_StdPeriph_Driver/src/stm32f10x_rcc.c:897:   *(__IO uint32_t *) BDCR_RTCEN
 915              		.loc 1 897 36 is_stmt 0 view .LVU193
 916 01a8 014B     		ldr	r3, .L66	@ tmp112,
 917 01aa 1860     		str	r0, [r3]	@ NewState, MEM[(volatile uint32_t *)1111622716B]
 918              	@ stm32f10x_lib/STM32F10x_StdPeriph_Driver/src/stm32f10x_rcc.c:898: }
 898:stm32f10x_lib/STM32F10x_StdPeriph_Driver/src/stm32f10x_rcc.c **** }
 919              		.loc 1 898 1 view .LVU194
 920 01ac 7047     		bx	lr	@
 921              	.L67:
 922 01ae 00BF     		.align	2
 923              	.L66:
 924 01b0 3C044242 		.word	1111622716
 925              		.cfi_endproc
 926              	.LFE48:
 927              		.size	RCC_RTCCLKCmd, .-RCC_RTCCLKCmd
 928              		.align	1
 929              		.global	RCC_GetClocksFreq
 930              		.syntax unified
 931              		.thumb
 932              		.thumb_func
 933              		.fpu softvfp
 934              		.type	RCC_GetClocksFreq, %function
 935              	RCC_GetClocksFreq:
 936              	.LVL45:
 937              	.LFB49:
 899:stm32f10x_lib/STM32F10x_StdPeriph_Driver/src/stm32f10x_rcc.c **** 
 900:stm32f10x_lib/STM32F10x_StdPeriph_Driver/src/stm32f10x_rcc.c **** /**
 901:stm32f10x_lib/STM32F10x_StdPeriph_Driver/src/stm32f10x_rcc.c ****   * @brief  Returns the frequencies of different on chip clocks.
 902:stm32f10x_lib/STM32F10x_StdPeriph_Driver/src/stm32f10x_rcc.c ****   * @param  RCC_Clocks: pointer to a RCC_ClocksTypeDef structure which will hold
 903:stm32f10x_lib/STM32F10x_StdPeriph_Driver/src/stm32f10x_rcc.c ****   *         the clocks frequencies.
 904:stm32f10x_lib/STM32F10x_StdPeriph_Driver/src/stm32f10x_rcc.c ****   * @note   The result of this function could be not correct when using 
 905:stm32f10x_lib/STM32F10x_StdPeriph_Driver/src/stm32f10x_rcc.c ****   *         fractional value for HSE crystal.  
 906:stm32f10x_lib/STM32F10x_StdPeriph_Driver/src/stm32f10x_rcc.c ****   * @retval None
 907:stm32f10x_lib/STM32F10x_StdPeriph_Driver/src/stm32f10x_rcc.c ****   */
 908:stm32f10x_lib/STM32F10x_StdPeriph_Driver/src/stm32f10x_rcc.c **** void RCC_GetClocksFreq(RCC_ClocksTypeDef* RCC_Clocks)
 909:stm32f10x_lib/STM32F10x_StdPeriph_Driver/src/stm32f10x_rcc.c **** {
 938              		.loc 1 909 1 is_stmt 1 view -0
 939              		.cfi_startproc
 940              		@ args = 0, pretend = 0, frame = 0
 941              		@ frame_needed = 0, uses_anonymous_args = 0
 910:stm32f10x_lib/STM32F10x_StdPeriph_Driver/src/stm32f10x_rcc.c ****   uint32_t tmp = 0, pllmull = 0, pllsource = 0, presc = 0;
 942              		.loc 1 910 3 view .LVU196
 911:stm32f10x_lib/STM32F10x_StdPeriph_Driver/src/stm32f10x_rcc.c **** 
 912:stm32f10x_lib/STM32F10x_StdPeriph_Driver/src/stm32f10x_rcc.c **** #ifdef  STM32F10X_CL
 913:stm32f10x_lib/STM32F10x_StdPeriph_Driver/src/stm32f10x_rcc.c ****   uint32_t prediv1source = 0, prediv1factor = 0, prediv2factor = 0, pll2mull = 0;
 914:stm32f10x_lib/STM32F10x_StdPeriph_Driver/src/stm32f10x_rcc.c **** #endif /* STM32F10X_CL */
 915:stm32f10x_lib/STM32F10x_StdPeriph_Driver/src/stm32f10x_rcc.c **** 
 916:stm32f10x_lib/STM32F10x_StdPeriph_Driver/src/stm32f10x_rcc.c **** #if defined (STM32F10X_LD_VL) || defined (STM32F10X_MD_VL) || defined (STM32F10X_HD_VL)
 917:stm32f10x_lib/STM32F10x_StdPeriph_Driver/src/stm32f10x_rcc.c ****   uint32_t prediv1factor = 0;
 943              		.loc 1 917 3 view .LVU197
 918:stm32f10x_lib/STM32F10x_StdPeriph_Driver/src/stm32f10x_rcc.c **** #endif
 919:stm32f10x_lib/STM32F10x_StdPeriph_Driver/src/stm32f10x_rcc.c ****     
 920:stm32f10x_lib/STM32F10x_StdPeriph_Driver/src/stm32f10x_rcc.c ****   /* Get SYSCLK source -------------------------------------------------------*/
 921:stm32f10x_lib/STM32F10x_StdPeriph_Driver/src/stm32f10x_rcc.c ****   tmp = RCC->CFGR & CFGR_SWS_Mask;
 944              		.loc 1 921 3 view .LVU198
ARM GAS  /tmp/cc6sR8f9.s 			page 34


 945              	@ stm32f10x_lib/STM32F10x_StdPeriph_Driver/src/stm32f10x_rcc.c:921:   tmp = RCC->CFGR & CFGR_SWS_Ma
 946              		.loc 1 921 12 is_stmt 0 view .LVU199
 947 01b4 1C4A     		ldr	r2, .L74	@ tmp150,
 948              	@ stm32f10x_lib/STM32F10x_StdPeriph_Driver/src/stm32f10x_rcc.c:909: {
 909:stm32f10x_lib/STM32F10x_StdPeriph_Driver/src/stm32f10x_rcc.c ****   uint32_t tmp = 0, pllmull = 0, pllsource = 0, presc = 0;
 949              		.loc 1 909 1 view .LVU200
 950 01b6 10B5     		push	{r4, lr}	@
 951              	.LCFI0:
 952              		.cfi_def_cfa_offset 8
 953              		.cfi_offset 4, -8
 954              		.cfi_offset 14, -4
 955              	@ stm32f10x_lib/STM32F10x_StdPeriph_Driver/src/stm32f10x_rcc.c:921:   tmp = RCC->CFGR & CFGR_SWS_Ma
 956              		.loc 1 921 12 view .LVU201
 957 01b8 5368     		ldr	r3, [r2, #4]	@ _1, MEM[(struct RCC_TypeDef *)1073876992B].CFGR
 958              	.LVL46:
 922:stm32f10x_lib/STM32F10x_StdPeriph_Driver/src/stm32f10x_rcc.c ****   
 923:stm32f10x_lib/STM32F10x_StdPeriph_Driver/src/stm32f10x_rcc.c ****   switch (tmp)
 959              		.loc 1 923 3 is_stmt 1 view .LVU202
 960              	@ stm32f10x_lib/STM32F10x_StdPeriph_Driver/src/stm32f10x_rcc.c:921:   tmp = RCC->CFGR & CFGR_SWS_Ma
 921:stm32f10x_lib/STM32F10x_StdPeriph_Driver/src/stm32f10x_rcc.c ****   
 961              		.loc 1 921 7 is_stmt 0 view .LVU203
 962 01ba 03F00C03 		and	r3, r3, #12	@ tmp, _1,
 963              	.LVL47:
 964              	@ stm32f10x_lib/STM32F10x_StdPeriph_Driver/src/stm32f10x_rcc.c:923:   switch (tmp)
 965              		.loc 1 923 3 view .LVU204
 966 01be 082B     		cmp	r3, #8	@ tmp,
 967 01c0 1FD0     		beq	.L69		@,
 924:stm32f10x_lib/STM32F10x_StdPeriph_Driver/src/stm32f10x_rcc.c ****   {
 925:stm32f10x_lib/STM32F10x_StdPeriph_Driver/src/stm32f10x_rcc.c ****     case 0x00:  /* HSI used as system clock */
 926:stm32f10x_lib/STM32F10x_StdPeriph_Driver/src/stm32f10x_rcc.c ****       RCC_Clocks->SYSCLK_Frequency = HSI_VALUE;
 968              		.loc 1 926 7 is_stmt 1 view .LVU205
 969              	@ stm32f10x_lib/STM32F10x_StdPeriph_Driver/src/stm32f10x_rcc.c:926:       RCC_Clocks->SYSCLK_Freque
 970              		.loc 1 926 36 is_stmt 0 view .LVU206
 971 01c2 1A4B     		ldr	r3, .L74+4	@ tmp152,
 972              	.LVL48:
 973              	.L72:
 974              	@ stm32f10x_lib/STM32F10x_StdPeriph_Driver/src/stm32f10x_rcc.c:949:        RCC_Clocks->SYSCLK_Frequ
 927:stm32f10x_lib/STM32F10x_StdPeriph_Driver/src/stm32f10x_rcc.c ****       break;
 928:stm32f10x_lib/STM32F10x_StdPeriph_Driver/src/stm32f10x_rcc.c ****     case 0x04:  /* HSE used as system clock */
 929:stm32f10x_lib/STM32F10x_StdPeriph_Driver/src/stm32f10x_rcc.c ****       RCC_Clocks->SYSCLK_Frequency = HSE_VALUE;
 930:stm32f10x_lib/STM32F10x_StdPeriph_Driver/src/stm32f10x_rcc.c ****       break;
 931:stm32f10x_lib/STM32F10x_StdPeriph_Driver/src/stm32f10x_rcc.c ****     case 0x08:  /* PLL used as system clock */
 932:stm32f10x_lib/STM32F10x_StdPeriph_Driver/src/stm32f10x_rcc.c **** 
 933:stm32f10x_lib/STM32F10x_StdPeriph_Driver/src/stm32f10x_rcc.c ****       /* Get PLL clock source and multiplication factor ----------------------*/
 934:stm32f10x_lib/STM32F10x_StdPeriph_Driver/src/stm32f10x_rcc.c ****       pllmull = RCC->CFGR & CFGR_PLLMull_Mask;
 935:stm32f10x_lib/STM32F10x_StdPeriph_Driver/src/stm32f10x_rcc.c ****       pllsource = RCC->CFGR & CFGR_PLLSRC_Mask;
 936:stm32f10x_lib/STM32F10x_StdPeriph_Driver/src/stm32f10x_rcc.c ****       
 937:stm32f10x_lib/STM32F10x_StdPeriph_Driver/src/stm32f10x_rcc.c **** #ifndef STM32F10X_CL      
 938:stm32f10x_lib/STM32F10x_StdPeriph_Driver/src/stm32f10x_rcc.c ****       pllmull = ( pllmull >> 18) + 2;
 939:stm32f10x_lib/STM32F10x_StdPeriph_Driver/src/stm32f10x_rcc.c ****       
 940:stm32f10x_lib/STM32F10x_StdPeriph_Driver/src/stm32f10x_rcc.c ****       if (pllsource == 0x00)
 941:stm32f10x_lib/STM32F10x_StdPeriph_Driver/src/stm32f10x_rcc.c ****       {/* HSI oscillator clock divided by 2 selected as PLL clock entry */
 942:stm32f10x_lib/STM32F10x_StdPeriph_Driver/src/stm32f10x_rcc.c ****         RCC_Clocks->SYSCLK_Frequency = (HSI_VALUE >> 1) * pllmull;
 943:stm32f10x_lib/STM32F10x_StdPeriph_Driver/src/stm32f10x_rcc.c ****       }
 944:stm32f10x_lib/STM32F10x_StdPeriph_Driver/src/stm32f10x_rcc.c ****       else
 945:stm32f10x_lib/STM32F10x_StdPeriph_Driver/src/stm32f10x_rcc.c ****       {
 946:stm32f10x_lib/STM32F10x_StdPeriph_Driver/src/stm32f10x_rcc.c ****  #if defined (STM32F10X_LD_VL) || defined (STM32F10X_MD_VL) || defined (STM32F10X_HD_VL)
ARM GAS  /tmp/cc6sR8f9.s 			page 35


 947:stm32f10x_lib/STM32F10x_StdPeriph_Driver/src/stm32f10x_rcc.c ****        prediv1factor = (RCC->CFGR2 & CFGR2_PREDIV1) + 1;
 948:stm32f10x_lib/STM32F10x_StdPeriph_Driver/src/stm32f10x_rcc.c ****        /* HSE oscillator clock selected as PREDIV1 clock entry */
 949:stm32f10x_lib/STM32F10x_StdPeriph_Driver/src/stm32f10x_rcc.c ****        RCC_Clocks->SYSCLK_Frequency = (HSE_VALUE / prediv1factor) * pllmull; 
 975              		.loc 1 949 37 view .LVU207
 976 01c4 0360     		str	r3, [r0]	@ tmp169, RCC_Clocks_34(D)->SYSCLK_Frequency
 950:stm32f10x_lib/STM32F10x_StdPeriph_Driver/src/stm32f10x_rcc.c ****  #else
 951:stm32f10x_lib/STM32F10x_StdPeriph_Driver/src/stm32f10x_rcc.c ****         /* HSE selected as PLL clock entry */
 952:stm32f10x_lib/STM32F10x_StdPeriph_Driver/src/stm32f10x_rcc.c ****         if ((RCC->CFGR & CFGR_PLLXTPRE_Mask) != (uint32_t)RESET)
 953:stm32f10x_lib/STM32F10x_StdPeriph_Driver/src/stm32f10x_rcc.c ****         {/* HSE oscillator clock divided by 2 */
 954:stm32f10x_lib/STM32F10x_StdPeriph_Driver/src/stm32f10x_rcc.c ****           RCC_Clocks->SYSCLK_Frequency = (HSE_VALUE >> 1) * pllmull;
 955:stm32f10x_lib/STM32F10x_StdPeriph_Driver/src/stm32f10x_rcc.c ****         }
 956:stm32f10x_lib/STM32F10x_StdPeriph_Driver/src/stm32f10x_rcc.c ****         else
 957:stm32f10x_lib/STM32F10x_StdPeriph_Driver/src/stm32f10x_rcc.c ****         {
 958:stm32f10x_lib/STM32F10x_StdPeriph_Driver/src/stm32f10x_rcc.c ****           RCC_Clocks->SYSCLK_Frequency = HSE_VALUE * pllmull;
 959:stm32f10x_lib/STM32F10x_StdPeriph_Driver/src/stm32f10x_rcc.c ****         }
 960:stm32f10x_lib/STM32F10x_StdPeriph_Driver/src/stm32f10x_rcc.c ****  #endif
 961:stm32f10x_lib/STM32F10x_StdPeriph_Driver/src/stm32f10x_rcc.c ****       }
 962:stm32f10x_lib/STM32F10x_StdPeriph_Driver/src/stm32f10x_rcc.c **** #else
 963:stm32f10x_lib/STM32F10x_StdPeriph_Driver/src/stm32f10x_rcc.c ****       pllmull = pllmull >> 18;
 964:stm32f10x_lib/STM32F10x_StdPeriph_Driver/src/stm32f10x_rcc.c ****       
 965:stm32f10x_lib/STM32F10x_StdPeriph_Driver/src/stm32f10x_rcc.c ****       if (pllmull != 0x0D)
 966:stm32f10x_lib/STM32F10x_StdPeriph_Driver/src/stm32f10x_rcc.c ****       {
 967:stm32f10x_lib/STM32F10x_StdPeriph_Driver/src/stm32f10x_rcc.c ****          pllmull += 2;
 968:stm32f10x_lib/STM32F10x_StdPeriph_Driver/src/stm32f10x_rcc.c ****       }
 969:stm32f10x_lib/STM32F10x_StdPeriph_Driver/src/stm32f10x_rcc.c ****       else
 970:stm32f10x_lib/STM32F10x_StdPeriph_Driver/src/stm32f10x_rcc.c ****       { /* PLL multiplication factor = PLL input clock * 6.5 */
 971:stm32f10x_lib/STM32F10x_StdPeriph_Driver/src/stm32f10x_rcc.c ****         pllmull = 13 / 2; 
 972:stm32f10x_lib/STM32F10x_StdPeriph_Driver/src/stm32f10x_rcc.c ****       }
 973:stm32f10x_lib/STM32F10x_StdPeriph_Driver/src/stm32f10x_rcc.c ****             
 974:stm32f10x_lib/STM32F10x_StdPeriph_Driver/src/stm32f10x_rcc.c ****       if (pllsource == 0x00)
 975:stm32f10x_lib/STM32F10x_StdPeriph_Driver/src/stm32f10x_rcc.c ****       {/* HSI oscillator clock divided by 2 selected as PLL clock entry */
 976:stm32f10x_lib/STM32F10x_StdPeriph_Driver/src/stm32f10x_rcc.c ****         RCC_Clocks->SYSCLK_Frequency = (HSI_VALUE >> 1) * pllmull;
 977:stm32f10x_lib/STM32F10x_StdPeriph_Driver/src/stm32f10x_rcc.c ****       }
 978:stm32f10x_lib/STM32F10x_StdPeriph_Driver/src/stm32f10x_rcc.c ****       else
 979:stm32f10x_lib/STM32F10x_StdPeriph_Driver/src/stm32f10x_rcc.c ****       {/* PREDIV1 selected as PLL clock entry */
 980:stm32f10x_lib/STM32F10x_StdPeriph_Driver/src/stm32f10x_rcc.c ****         
 981:stm32f10x_lib/STM32F10x_StdPeriph_Driver/src/stm32f10x_rcc.c ****         /* Get PREDIV1 clock source and division factor */
 982:stm32f10x_lib/STM32F10x_StdPeriph_Driver/src/stm32f10x_rcc.c ****         prediv1source = RCC->CFGR2 & CFGR2_PREDIV1SRC;
 983:stm32f10x_lib/STM32F10x_StdPeriph_Driver/src/stm32f10x_rcc.c ****         prediv1factor = (RCC->CFGR2 & CFGR2_PREDIV1) + 1;
 984:stm32f10x_lib/STM32F10x_StdPeriph_Driver/src/stm32f10x_rcc.c ****         
 985:stm32f10x_lib/STM32F10x_StdPeriph_Driver/src/stm32f10x_rcc.c ****         if (prediv1source == 0)
 986:stm32f10x_lib/STM32F10x_StdPeriph_Driver/src/stm32f10x_rcc.c ****         { /* HSE oscillator clock selected as PREDIV1 clock entry */
 987:stm32f10x_lib/STM32F10x_StdPeriph_Driver/src/stm32f10x_rcc.c ****           RCC_Clocks->SYSCLK_Frequency = (HSE_VALUE / prediv1factor) * pllmull;          
 988:stm32f10x_lib/STM32F10x_StdPeriph_Driver/src/stm32f10x_rcc.c ****         }
 989:stm32f10x_lib/STM32F10x_StdPeriph_Driver/src/stm32f10x_rcc.c ****         else
 990:stm32f10x_lib/STM32F10x_StdPeriph_Driver/src/stm32f10x_rcc.c ****         {/* PLL2 clock selected as PREDIV1 clock entry */
 991:stm32f10x_lib/STM32F10x_StdPeriph_Driver/src/stm32f10x_rcc.c ****           
 992:stm32f10x_lib/STM32F10x_StdPeriph_Driver/src/stm32f10x_rcc.c ****           /* Get PREDIV2 division factor and PLL2 multiplication factor */
 993:stm32f10x_lib/STM32F10x_StdPeriph_Driver/src/stm32f10x_rcc.c ****           prediv2factor = ((RCC->CFGR2 & CFGR2_PREDIV2) >> 4) + 1;
 994:stm32f10x_lib/STM32F10x_StdPeriph_Driver/src/stm32f10x_rcc.c ****           pll2mull = ((RCC->CFGR2 & CFGR2_PLL2MUL) >> 8 ) + 2; 
 995:stm32f10x_lib/STM32F10x_StdPeriph_Driver/src/stm32f10x_rcc.c ****           RCC_Clocks->SYSCLK_Frequency = (((HSE_VALUE / prediv2factor) * pll2mull) / prediv1factor)
 996:stm32f10x_lib/STM32F10x_StdPeriph_Driver/src/stm32f10x_rcc.c ****         }
 997:stm32f10x_lib/STM32F10x_StdPeriph_Driver/src/stm32f10x_rcc.c ****       }
 998:stm32f10x_lib/STM32F10x_StdPeriph_Driver/src/stm32f10x_rcc.c **** #endif /* STM32F10X_CL */ 
 999:stm32f10x_lib/STM32F10x_StdPeriph_Driver/src/stm32f10x_rcc.c ****       break;
1000:stm32f10x_lib/STM32F10x_StdPeriph_Driver/src/stm32f10x_rcc.c **** 
1001:stm32f10x_lib/STM32F10x_StdPeriph_Driver/src/stm32f10x_rcc.c ****     default:
ARM GAS  /tmp/cc6sR8f9.s 			page 36


1002:stm32f10x_lib/STM32F10x_StdPeriph_Driver/src/stm32f10x_rcc.c ****       RCC_Clocks->SYSCLK_Frequency = HSI_VALUE;
1003:stm32f10x_lib/STM32F10x_StdPeriph_Driver/src/stm32f10x_rcc.c ****       break;
1004:stm32f10x_lib/STM32F10x_StdPeriph_Driver/src/stm32f10x_rcc.c ****   }
1005:stm32f10x_lib/STM32F10x_StdPeriph_Driver/src/stm32f10x_rcc.c **** 
1006:stm32f10x_lib/STM32F10x_StdPeriph_Driver/src/stm32f10x_rcc.c ****   /* Compute HCLK, PCLK1, PCLK2 and ADCCLK clocks frequencies ----------------*/
1007:stm32f10x_lib/STM32F10x_StdPeriph_Driver/src/stm32f10x_rcc.c ****   /* Get HCLK prescaler */
1008:stm32f10x_lib/STM32F10x_StdPeriph_Driver/src/stm32f10x_rcc.c ****   tmp = RCC->CFGR & CFGR_HPRE_Set_Mask;
 977              		.loc 1 1008 3 is_stmt 1 view .LVU208
 978              	@ stm32f10x_lib/STM32F10x_StdPeriph_Driver/src/stm32f10x_rcc.c:1008:   tmp = RCC->CFGR & CFGR_HPRE_
 979              		.loc 1 1008 12 is_stmt 0 view .LVU209
 980 01c6 5368     		ldr	r3, [r2, #4]	@ _10, MEM[(struct RCC_TypeDef *)1073876992B].CFGR
 981              	.LVL49:
1009:stm32f10x_lib/STM32F10x_StdPeriph_Driver/src/stm32f10x_rcc.c ****   tmp = tmp >> 4;
 982              		.loc 1 1009 3 is_stmt 1 view .LVU210
 983              	@ stm32f10x_lib/STM32F10x_StdPeriph_Driver/src/stm32f10x_rcc.c:1010:   presc = APBAHBPrescTable[tmp
1010:stm32f10x_lib/STM32F10x_StdPeriph_Driver/src/stm32f10x_rcc.c ****   presc = APBAHBPrescTable[tmp];
 984              		.loc 1 1010 27 is_stmt 0 view .LVU211
 985 01c8 1949     		ldr	r1, .L74+8	@ tmp172,
 986              	@ stm32f10x_lib/STM32F10x_StdPeriph_Driver/src/stm32f10x_rcc.c:1009:   tmp = tmp >> 4;
1009:stm32f10x_lib/STM32F10x_StdPeriph_Driver/src/stm32f10x_rcc.c ****   tmp = tmp >> 4;
 987              		.loc 1 1009 7 view .LVU212
 988 01ca C3F30313 		ubfx	r3, r3, #4, #4	@ tmp, _10,,
 989              	.LVL50:
 990              		.loc 1 1010 3 is_stmt 1 view .LVU213
 991              	@ stm32f10x_lib/STM32F10x_StdPeriph_Driver/src/stm32f10x_rcc.c:1010:   presc = APBAHBPrescTable[tmp
 992              		.loc 1 1010 27 is_stmt 0 view .LVU214
 993 01ce CC5C     		ldrb	r4, [r1, r3]	@ zero_extendqisi2	@ tmp175, APBAHBPrescTable
 994              	.LVL51:
1011:stm32f10x_lib/STM32F10x_StdPeriph_Driver/src/stm32f10x_rcc.c ****   /* HCLK clock frequency */
1012:stm32f10x_lib/STM32F10x_StdPeriph_Driver/src/stm32f10x_rcc.c ****   RCC_Clocks->HCLK_Frequency = RCC_Clocks->SYSCLK_Frequency >> presc;
 995              		.loc 1 1012 3 is_stmt 1 view .LVU215
 996              	@ stm32f10x_lib/STM32F10x_StdPeriph_Driver/src/stm32f10x_rcc.c:1012:   RCC_Clocks->HCLK_Frequency =
 997              		.loc 1 1012 61 is_stmt 0 view .LVU216
 998 01d0 0368     		ldr	r3, [r0]	@ RCC_Clocks_34(D)->SYSCLK_Frequency, RCC_Clocks_34(D)->SYSCLK_Frequency
 999              	.LVL52:
 1000              		.loc 1 1012 61 view .LVU217
 1001 01d2 E340     		lsrs	r3, r3, r4	@ _13, RCC_Clocks_34(D)->SYSCLK_Frequency, tmp175
 1002              	@ stm32f10x_lib/STM32F10x_StdPeriph_Driver/src/stm32f10x_rcc.c:1012:   RCC_Clocks->HCLK_Frequency =
 1003              		.loc 1 1012 30 view .LVU218
 1004 01d4 4360     		str	r3, [r0, #4]	@ _13, RCC_Clocks_34(D)->HCLK_Frequency
1013:stm32f10x_lib/STM32F10x_StdPeriph_Driver/src/stm32f10x_rcc.c ****   /* Get PCLK1 prescaler */
1014:stm32f10x_lib/STM32F10x_StdPeriph_Driver/src/stm32f10x_rcc.c ****   tmp = RCC->CFGR & CFGR_PPRE1_Set_Mask;
 1005              		.loc 1 1014 3 is_stmt 1 view .LVU219
 1006              	@ stm32f10x_lib/STM32F10x_StdPeriph_Driver/src/stm32f10x_rcc.c:1014:   tmp = RCC->CFGR & CFGR_PPRE1
 1007              		.loc 1 1014 12 is_stmt 0 view .LVU220
 1008 01d6 5468     		ldr	r4, [r2, #4]	@ _14, MEM[(struct RCC_TypeDef *)1073876992B].CFGR
 1009              	.LVL53:
1015:stm32f10x_lib/STM32F10x_StdPeriph_Driver/src/stm32f10x_rcc.c ****   tmp = tmp >> 8;
 1010              		.loc 1 1015 3 is_stmt 1 view .LVU221
 1011              	@ stm32f10x_lib/STM32F10x_StdPeriph_Driver/src/stm32f10x_rcc.c:1015:   tmp = tmp >> 8;
 1012              		.loc 1 1015 7 is_stmt 0 view .LVU222
 1013 01d8 C4F30224 		ubfx	r4, r4, #8, #3	@ tmp, _14,,
 1014              	.LVL54:
1016:stm32f10x_lib/STM32F10x_StdPeriph_Driver/src/stm32f10x_rcc.c ****   presc = APBAHBPrescTable[tmp];
 1015              		.loc 1 1016 3 is_stmt 1 view .LVU223
 1016              	@ stm32f10x_lib/STM32F10x_StdPeriph_Driver/src/stm32f10x_rcc.c:1016:   presc = APBAHBPrescTable[tmp
 1017              		.loc 1 1016 27 is_stmt 0 view .LVU224
ARM GAS  /tmp/cc6sR8f9.s 			page 37


 1018 01dc 0C5D     		ldrb	r4, [r1, r4]	@ zero_extendqisi2	@ tmp182, APBAHBPrescTable
 1019              	.LVL55:
1017:stm32f10x_lib/STM32F10x_StdPeriph_Driver/src/stm32f10x_rcc.c ****   /* PCLK1 clock frequency */
1018:stm32f10x_lib/STM32F10x_StdPeriph_Driver/src/stm32f10x_rcc.c ****   RCC_Clocks->PCLK1_Frequency = RCC_Clocks->HCLK_Frequency >> presc;
 1020              		.loc 1 1018 3 is_stmt 1 view .LVU225
 1021              	@ stm32f10x_lib/STM32F10x_StdPeriph_Driver/src/stm32f10x_rcc.c:1018:   RCC_Clocks->PCLK1_Frequency 
 1022              		.loc 1 1018 60 is_stmt 0 view .LVU226
 1023 01de 23FA04F4 		lsr	r4, r3, r4	@ tmp183, _13, tmp182
 1024              	.LVL56:
 1025              	@ stm32f10x_lib/STM32F10x_StdPeriph_Driver/src/stm32f10x_rcc.c:1018:   RCC_Clocks->PCLK1_Frequency 
 1026              		.loc 1 1018 31 view .LVU227
 1027 01e2 8460     		str	r4, [r0, #8]	@ tmp183, RCC_Clocks_34(D)->PCLK1_Frequency
1019:stm32f10x_lib/STM32F10x_StdPeriph_Driver/src/stm32f10x_rcc.c ****   /* Get PCLK2 prescaler */
1020:stm32f10x_lib/STM32F10x_StdPeriph_Driver/src/stm32f10x_rcc.c ****   tmp = RCC->CFGR & CFGR_PPRE2_Set_Mask;
 1028              		.loc 1 1020 3 is_stmt 1 view .LVU228
 1029              	@ stm32f10x_lib/STM32F10x_StdPeriph_Driver/src/stm32f10x_rcc.c:1020:   tmp = RCC->CFGR & CFGR_PPRE2
 1030              		.loc 1 1020 12 is_stmt 0 view .LVU229
 1031 01e4 5468     		ldr	r4, [r2, #4]	@ _17, MEM[(struct RCC_TypeDef *)1073876992B].CFGR
 1032              	.LVL57:
1021:stm32f10x_lib/STM32F10x_StdPeriph_Driver/src/stm32f10x_rcc.c ****   tmp = tmp >> 11;
 1033              		.loc 1 1021 3 is_stmt 1 view .LVU230
 1034              	@ stm32f10x_lib/STM32F10x_StdPeriph_Driver/src/stm32f10x_rcc.c:1021:   tmp = tmp >> 11;
 1035              		.loc 1 1021 7 is_stmt 0 view .LVU231
 1036 01e6 C4F3C224 		ubfx	r4, r4, #11, #3	@ tmp, _17,,
 1037              	.LVL58:
1022:stm32f10x_lib/STM32F10x_StdPeriph_Driver/src/stm32f10x_rcc.c ****   presc = APBAHBPrescTable[tmp];
 1038              		.loc 1 1022 3 is_stmt 1 view .LVU232
 1039              	@ stm32f10x_lib/STM32F10x_StdPeriph_Driver/src/stm32f10x_rcc.c:1022:   presc = APBAHBPrescTable[tmp
 1040              		.loc 1 1022 27 is_stmt 0 view .LVU233
 1041 01ea 0C5D     		ldrb	r4, [r1, r4]	@ zero_extendqisi2	@ tmp189, APBAHBPrescTable
 1042              	.LVL59:
1023:stm32f10x_lib/STM32F10x_StdPeriph_Driver/src/stm32f10x_rcc.c ****   /* PCLK2 clock frequency */
1024:stm32f10x_lib/STM32F10x_StdPeriph_Driver/src/stm32f10x_rcc.c ****   RCC_Clocks->PCLK2_Frequency = RCC_Clocks->HCLK_Frequency >> presc;
 1043              		.loc 1 1024 3 is_stmt 1 view .LVU234
 1044              	@ stm32f10x_lib/STM32F10x_StdPeriph_Driver/src/stm32f10x_rcc.c:1024:   RCC_Clocks->PCLK2_Frequency 
 1045              		.loc 1 1024 60 is_stmt 0 view .LVU235
 1046 01ec E340     		lsrs	r3, r3, r4	@ _19, _13, tmp189
 1047              	@ stm32f10x_lib/STM32F10x_StdPeriph_Driver/src/stm32f10x_rcc.c:1024:   RCC_Clocks->PCLK2_Frequency 
 1048              		.loc 1 1024 31 view .LVU236
 1049 01ee C360     		str	r3, [r0, #12]	@ _19, RCC_Clocks_34(D)->PCLK2_Frequency
1025:stm32f10x_lib/STM32F10x_StdPeriph_Driver/src/stm32f10x_rcc.c ****   /* Get ADCCLK prescaler */
1026:stm32f10x_lib/STM32F10x_StdPeriph_Driver/src/stm32f10x_rcc.c ****   tmp = RCC->CFGR & CFGR_ADCPRE_Set_Mask;
 1050              		.loc 1 1026 3 is_stmt 1 view .LVU237
 1051              	@ stm32f10x_lib/STM32F10x_StdPeriph_Driver/src/stm32f10x_rcc.c:1026:   tmp = RCC->CFGR & CFGR_ADCPR
 1052              		.loc 1 1026 12 is_stmt 0 view .LVU238
 1053 01f0 5268     		ldr	r2, [r2, #4]	@ _20, MEM[(struct RCC_TypeDef *)1073876992B].CFGR
 1054              	.LVL60:
1027:stm32f10x_lib/STM32F10x_StdPeriph_Driver/src/stm32f10x_rcc.c ****   tmp = tmp >> 14;
 1055              		.loc 1 1027 3 is_stmt 1 view .LVU239
 1056              	@ stm32f10x_lib/STM32F10x_StdPeriph_Driver/src/stm32f10x_rcc.c:1027:   tmp = tmp >> 14;
 1057              		.loc 1 1027 7 is_stmt 0 view .LVU240
 1058 01f2 C2F38132 		ubfx	r2, r2, #14, #2	@ tmp, _20,,
 1059              	.LVL61:
1028:stm32f10x_lib/STM32F10x_StdPeriph_Driver/src/stm32f10x_rcc.c ****   presc = ADCPrescTable[tmp];
 1060              		.loc 1 1028 3 is_stmt 1 view .LVU241
 1061              	@ stm32f10x_lib/STM32F10x_StdPeriph_Driver/src/stm32f10x_rcc.c:1028:   presc = ADCPrescTable[tmp];
 1062              		.loc 1 1028 24 is_stmt 0 view .LVU242
ARM GAS  /tmp/cc6sR8f9.s 			page 38


 1063 01f6 1144     		add	r1, r1, r2	@ tmp193, tmp
 1064 01f8 0A7C     		ldrb	r2, [r1, #16]	@ zero_extendqisi2	@ tmp196, ADCPrescTable
 1065              	.LVL62:
1029:stm32f10x_lib/STM32F10x_StdPeriph_Driver/src/stm32f10x_rcc.c ****   /* ADCCLK clock frequency */
1030:stm32f10x_lib/STM32F10x_StdPeriph_Driver/src/stm32f10x_rcc.c ****   RCC_Clocks->ADCCLK_Frequency = RCC_Clocks->PCLK2_Frequency / presc;
 1066              		.loc 1 1030 3 is_stmt 1 view .LVU243
 1067              	@ stm32f10x_lib/STM32F10x_StdPeriph_Driver/src/stm32f10x_rcc.c:1030:   RCC_Clocks->ADCCLK_Frequency
 1068              		.loc 1 1030 62 is_stmt 0 view .LVU244
 1069 01fa B3FBF2F3 		udiv	r3, r3, r2	@ tmp197, _19, tmp196
 1070              	@ stm32f10x_lib/STM32F10x_StdPeriph_Driver/src/stm32f10x_rcc.c:1030:   RCC_Clocks->ADCCLK_Frequency
 1071              		.loc 1 1030 32 view .LVU245
 1072 01fe 0361     		str	r3, [r0, #16]	@ tmp197, RCC_Clocks_34(D)->ADCCLK_Frequency
 1073              	@ stm32f10x_lib/STM32F10x_StdPeriph_Driver/src/stm32f10x_rcc.c:1031: }
1031:stm32f10x_lib/STM32F10x_StdPeriph_Driver/src/stm32f10x_rcc.c **** }
 1074              		.loc 1 1031 1 view .LVU246
 1075 0200 10BD     		pop	{r4, pc}	@
 1076              	.LVL63:
 1077              	.L69:
 934:stm32f10x_lib/STM32F10x_StdPeriph_Driver/src/stm32f10x_rcc.c ****       pllsource = RCC->CFGR & CFGR_PLLSRC_Mask;
 1078              		.loc 1 934 7 is_stmt 1 view .LVU247
 1079              	@ stm32f10x_lib/STM32F10x_StdPeriph_Driver/src/stm32f10x_rcc.c:934:       pllmull = RCC->CFGR & CFG
 934:stm32f10x_lib/STM32F10x_StdPeriph_Driver/src/stm32f10x_rcc.c ****       pllsource = RCC->CFGR & CFGR_PLLSRC_Mask;
 1080              		.loc 1 934 20 is_stmt 0 view .LVU248
 1081 0202 5368     		ldr	r3, [r2, #4]	@ _2, MEM[(struct RCC_TypeDef *)1073876992B].CFGR
 1082              	.LVL64:
 935:stm32f10x_lib/STM32F10x_StdPeriph_Driver/src/stm32f10x_rcc.c ****       
 1083              		.loc 1 935 7 is_stmt 1 view .LVU249
 1084              	@ stm32f10x_lib/STM32F10x_StdPeriph_Driver/src/stm32f10x_rcc.c:935:       pllsource = RCC->CFGR & C
 935:stm32f10x_lib/STM32F10x_StdPeriph_Driver/src/stm32f10x_rcc.c ****       
 1085              		.loc 1 935 22 is_stmt 0 view .LVU250
 1086 0204 5168     		ldr	r1, [r2, #4]	@ _3, MEM[(struct RCC_TypeDef *)1073876992B].CFGR
 1087              	.LVL65:
 938:stm32f10x_lib/STM32F10x_StdPeriph_Driver/src/stm32f10x_rcc.c ****       
 1088              		.loc 1 938 7 is_stmt 1 view .LVU251
 1089              	@ stm32f10x_lib/STM32F10x_StdPeriph_Driver/src/stm32f10x_rcc.c:938:       pllmull = ( pllmull >> 18
 938:stm32f10x_lib/STM32F10x_StdPeriph_Driver/src/stm32f10x_rcc.c ****       
 1090              		.loc 1 938 27 is_stmt 0 view .LVU252
 1091 0206 C3F38343 		ubfx	r3, r3, #18, #4	@ tmp156, _2,,
 1092              	.LVL66:
 1093              	@ stm32f10x_lib/STM32F10x_StdPeriph_Driver/src/stm32f10x_rcc.c:940:       if (pllsource == 0x00)
 940:stm32f10x_lib/STM32F10x_StdPeriph_Driver/src/stm32f10x_rcc.c ****       {/* HSI oscillator clock divided by 2 selected as PLL clock entry */
 1094              		.loc 1 940 10 view .LVU253
 1095 020a C903     		lsls	r1, r1, #15	@, _3,
 1096              	.LVL67:
 1097              	@ stm32f10x_lib/STM32F10x_StdPeriph_Driver/src/stm32f10x_rcc.c:947:        prediv1factor = (RCC->CF
 947:stm32f10x_lib/STM32F10x_StdPeriph_Driver/src/stm32f10x_rcc.c ****        /* HSE oscillator clock selected as PREDIV1 clock entry */
 1098              		.loc 1 947 28 view .LVU254
 1099 020c 41BF     		itttt	mi
 1100 020e D16A     		ldrmi	r1, [r2, #44]	@ _6, MEM[(struct RCC_TypeDef *)1073876992B].CFGR2
 1101              	@ stm32f10x_lib/STM32F10x_StdPeriph_Driver/src/stm32f10x_rcc.c:949:        RCC_Clocks->SYSCLK_Frequ
 949:stm32f10x_lib/STM32F10x_StdPeriph_Driver/src/stm32f10x_rcc.c ****  #else
 1102              		.loc 1 949 50 view .LVU255
 1103 0210 064C     		ldrmi	r4, .L74+4	@ tmp165,
 1104              	@ stm32f10x_lib/STM32F10x_StdPeriph_Driver/src/stm32f10x_rcc.c:947:        prediv1factor = (RCC->CF
 947:stm32f10x_lib/STM32F10x_StdPeriph_Driver/src/stm32f10x_rcc.c ****        /* HSE oscillator clock selected as PREDIV1 clock entry */
 1105              		.loc 1 947 36 view .LVU256
 1106 0212 01F00F01 		andmi	r1, r1, #15	@ tmp161, _6,
ARM GAS  /tmp/cc6sR8f9.s 			page 39


 1107              	@ stm32f10x_lib/STM32F10x_StdPeriph_Driver/src/stm32f10x_rcc.c:947:        prediv1factor = (RCC->CF
 947:stm32f10x_lib/STM32F10x_StdPeriph_Driver/src/stm32f10x_rcc.c ****        /* HSE oscillator clock selected as PREDIV1 clock entry */
 1108              		.loc 1 947 22 view .LVU257
 1109 0216 0131     		addmi	r1, r1, #1	@ prediv1factor, tmp161,
 1110              	@ stm32f10x_lib/STM32F10x_StdPeriph_Driver/src/stm32f10x_rcc.c:949:        RCC_Clocks->SYSCLK_Frequ
 949:stm32f10x_lib/STM32F10x_StdPeriph_Driver/src/stm32f10x_rcc.c ****  #else
 1111              		.loc 1 949 50 view .LVU258
 1112 0218 4CBF     		ite	mi
 1113 021a B4FBF1F1 		udivmi	r1, r4, r1	@ tmp164, tmp165, prediv1factor
 1114              	@ stm32f10x_lib/STM32F10x_StdPeriph_Driver/src/stm32f10x_rcc.c:942:         RCC_Clocks->SYSCLK_Freq
 942:stm32f10x_lib/STM32F10x_StdPeriph_Driver/src/stm32f10x_rcc.c ****       }
 1115              		.loc 1 942 57 view .LVU259
 1116 021e 0549     		ldrpl	r1, .L74+12	@ tmp159,
 1117              	@ stm32f10x_lib/STM32F10x_StdPeriph_Driver/src/stm32f10x_rcc.c:938:       pllmull = ( pllmull >> 18
 938:stm32f10x_lib/STM32F10x_StdPeriph_Driver/src/stm32f10x_rcc.c ****       
 1118              		.loc 1 938 15 view .LVU260
 1119 0220 0233     		adds	r3, r3, #2	@ pllmull, tmp156,
 1120              	.LVL68:
 940:stm32f10x_lib/STM32F10x_StdPeriph_Driver/src/stm32f10x_rcc.c ****       {/* HSI oscillator clock divided by 2 selected as PLL clock entry */
 1121              		.loc 1 940 7 is_stmt 1 view .LVU261
 942:stm32f10x_lib/STM32F10x_StdPeriph_Driver/src/stm32f10x_rcc.c ****       }
 1122              		.loc 1 942 9 view .LVU262
 947:stm32f10x_lib/STM32F10x_StdPeriph_Driver/src/stm32f10x_rcc.c ****        /* HSE oscillator clock selected as PREDIV1 clock entry */
 1123              		.loc 1 947 8 view .LVU263
 949:stm32f10x_lib/STM32F10x_StdPeriph_Driver/src/stm32f10x_rcc.c ****  #else
 1124              		.loc 1 949 8 view .LVU264
 1125              	@ stm32f10x_lib/STM32F10x_StdPeriph_Driver/src/stm32f10x_rcc.c:949:        RCC_Clocks->SYSCLK_Frequ
 949:stm32f10x_lib/STM32F10x_StdPeriph_Driver/src/stm32f10x_rcc.c ****  #else
 1126              		.loc 1 949 67 is_stmt 0 view .LVU265
 1127 0222 4B43     		muls	r3, r1, r3	@ tmp169, tmp164
 1128              	.LVL69:
 949:stm32f10x_lib/STM32F10x_StdPeriph_Driver/src/stm32f10x_rcc.c ****  #else
 1129              		.loc 1 949 67 view .LVU266
 1130 0224 CEE7     		b	.L72		@
 1131              	.L75:
 1132 0226 00BF     		.align	2
 1133              	.L74:
 1134 0228 00100240 		.word	1073876992
 1135 022c 00127A00 		.word	8000000
 1136 0230 00000000 		.word	.LANCHOR0
 1137 0234 00093D00 		.word	4000000
 1138              		.cfi_endproc
 1139              	.LFE49:
 1140              		.size	RCC_GetClocksFreq, .-RCC_GetClocksFreq
 1141              		.align	1
 1142              		.global	RCC_AHBPeriphClockCmd
 1143              		.syntax unified
 1144              		.thumb
 1145              		.thumb_func
 1146              		.fpu softvfp
 1147              		.type	RCC_AHBPeriphClockCmd, %function
 1148              	RCC_AHBPeriphClockCmd:
 1149              	.LVL70:
 1150              	.LFB50:
1032:stm32f10x_lib/STM32F10x_StdPeriph_Driver/src/stm32f10x_rcc.c **** 
1033:stm32f10x_lib/STM32F10x_StdPeriph_Driver/src/stm32f10x_rcc.c **** /**
1034:stm32f10x_lib/STM32F10x_StdPeriph_Driver/src/stm32f10x_rcc.c ****   * @brief  Enables or disables the AHB peripheral clock.
ARM GAS  /tmp/cc6sR8f9.s 			page 40


1035:stm32f10x_lib/STM32F10x_StdPeriph_Driver/src/stm32f10x_rcc.c ****   * @param  RCC_AHBPeriph: specifies the AHB peripheral to gates its clock.
1036:stm32f10x_lib/STM32F10x_StdPeriph_Driver/src/stm32f10x_rcc.c ****   *   
1037:stm32f10x_lib/STM32F10x_StdPeriph_Driver/src/stm32f10x_rcc.c ****   *   For @b STM32_Connectivity_line_devices, this parameter can be any combination
1038:stm32f10x_lib/STM32F10x_StdPeriph_Driver/src/stm32f10x_rcc.c ****   *   of the following values:        
1039:stm32f10x_lib/STM32F10x_StdPeriph_Driver/src/stm32f10x_rcc.c ****   *     @arg RCC_AHBPeriph_DMA1
1040:stm32f10x_lib/STM32F10x_StdPeriph_Driver/src/stm32f10x_rcc.c ****   *     @arg RCC_AHBPeriph_DMA2
1041:stm32f10x_lib/STM32F10x_StdPeriph_Driver/src/stm32f10x_rcc.c ****   *     @arg RCC_AHBPeriph_SRAM
1042:stm32f10x_lib/STM32F10x_StdPeriph_Driver/src/stm32f10x_rcc.c ****   *     @arg RCC_AHBPeriph_FLITF
1043:stm32f10x_lib/STM32F10x_StdPeriph_Driver/src/stm32f10x_rcc.c ****   *     @arg RCC_AHBPeriph_CRC
1044:stm32f10x_lib/STM32F10x_StdPeriph_Driver/src/stm32f10x_rcc.c ****   *     @arg RCC_AHBPeriph_OTG_FS    
1045:stm32f10x_lib/STM32F10x_StdPeriph_Driver/src/stm32f10x_rcc.c ****   *     @arg RCC_AHBPeriph_ETH_MAC   
1046:stm32f10x_lib/STM32F10x_StdPeriph_Driver/src/stm32f10x_rcc.c ****   *     @arg RCC_AHBPeriph_ETH_MAC_Tx
1047:stm32f10x_lib/STM32F10x_StdPeriph_Driver/src/stm32f10x_rcc.c ****   *     @arg RCC_AHBPeriph_ETH_MAC_Rx
1048:stm32f10x_lib/STM32F10x_StdPeriph_Driver/src/stm32f10x_rcc.c ****   * 
1049:stm32f10x_lib/STM32F10x_StdPeriph_Driver/src/stm32f10x_rcc.c ****   *   For @b other_STM32_devices, this parameter can be any combination of the 
1050:stm32f10x_lib/STM32F10x_StdPeriph_Driver/src/stm32f10x_rcc.c ****   *   following values:        
1051:stm32f10x_lib/STM32F10x_StdPeriph_Driver/src/stm32f10x_rcc.c ****   *     @arg RCC_AHBPeriph_DMA1
1052:stm32f10x_lib/STM32F10x_StdPeriph_Driver/src/stm32f10x_rcc.c ****   *     @arg RCC_AHBPeriph_DMA2
1053:stm32f10x_lib/STM32F10x_StdPeriph_Driver/src/stm32f10x_rcc.c ****   *     @arg RCC_AHBPeriph_SRAM
1054:stm32f10x_lib/STM32F10x_StdPeriph_Driver/src/stm32f10x_rcc.c ****   *     @arg RCC_AHBPeriph_FLITF
1055:stm32f10x_lib/STM32F10x_StdPeriph_Driver/src/stm32f10x_rcc.c ****   *     @arg RCC_AHBPeriph_CRC
1056:stm32f10x_lib/STM32F10x_StdPeriph_Driver/src/stm32f10x_rcc.c ****   *     @arg RCC_AHBPeriph_FSMC
1057:stm32f10x_lib/STM32F10x_StdPeriph_Driver/src/stm32f10x_rcc.c ****   *     @arg RCC_AHBPeriph_SDIO
1058:stm32f10x_lib/STM32F10x_StdPeriph_Driver/src/stm32f10x_rcc.c ****   *   
1059:stm32f10x_lib/STM32F10x_StdPeriph_Driver/src/stm32f10x_rcc.c ****   * @note SRAM and FLITF clock can be disabled only during sleep mode.
1060:stm32f10x_lib/STM32F10x_StdPeriph_Driver/src/stm32f10x_rcc.c ****   * @param  NewState: new state of the specified peripheral clock.
1061:stm32f10x_lib/STM32F10x_StdPeriph_Driver/src/stm32f10x_rcc.c ****   *   This parameter can be: ENABLE or DISABLE.
1062:stm32f10x_lib/STM32F10x_StdPeriph_Driver/src/stm32f10x_rcc.c ****   * @retval None
1063:stm32f10x_lib/STM32F10x_StdPeriph_Driver/src/stm32f10x_rcc.c ****   */
1064:stm32f10x_lib/STM32F10x_StdPeriph_Driver/src/stm32f10x_rcc.c **** void RCC_AHBPeriphClockCmd(uint32_t RCC_AHBPeriph, FunctionalState NewState)
1065:stm32f10x_lib/STM32F10x_StdPeriph_Driver/src/stm32f10x_rcc.c **** {
 1151              		.loc 1 1065 1 is_stmt 1 view -0
 1152              		.cfi_startproc
 1153              		@ args = 0, pretend = 0, frame = 0
 1154              		@ frame_needed = 0, uses_anonymous_args = 0
 1155              		@ link register save eliminated.
1066:stm32f10x_lib/STM32F10x_StdPeriph_Driver/src/stm32f10x_rcc.c ****   /* Check the parameters */
1067:stm32f10x_lib/STM32F10x_StdPeriph_Driver/src/stm32f10x_rcc.c ****   assert_param(IS_RCC_AHB_PERIPH(RCC_AHBPeriph));
 1156              		.loc 1 1067 3 view .LVU268
1068:stm32f10x_lib/STM32F10x_StdPeriph_Driver/src/stm32f10x_rcc.c ****   assert_param(IS_FUNCTIONAL_STATE(NewState));
 1157              		.loc 1 1068 3 view .LVU269
1069:stm32f10x_lib/STM32F10x_StdPeriph_Driver/src/stm32f10x_rcc.c **** 
1070:stm32f10x_lib/STM32F10x_StdPeriph_Driver/src/stm32f10x_rcc.c ****   if (NewState != DISABLE)
 1158              		.loc 1 1070 3 view .LVU270
 1159 0238 044B     		ldr	r3, .L80	@ tmp122,
 1160              	@ stm32f10x_lib/STM32F10x_StdPeriph_Driver/src/stm32f10x_rcc.c:1072:     RCC->AHBENR |= RCC_AHBPeri
1071:stm32f10x_lib/STM32F10x_StdPeriph_Driver/src/stm32f10x_rcc.c ****   {
1072:stm32f10x_lib/STM32F10x_StdPeriph_Driver/src/stm32f10x_rcc.c ****     RCC->AHBENR |= RCC_AHBPeriph;
 1161              		.loc 1 1072 17 is_stmt 0 view .LVU271
 1162 023a 5A69     		ldr	r2, [r3, #20]	@ _1,
 1163              	@ stm32f10x_lib/STM32F10x_StdPeriph_Driver/src/stm32f10x_rcc.c:1070:   if (NewState != DISABLE)
1070:stm32f10x_lib/STM32F10x_StdPeriph_Driver/src/stm32f10x_rcc.c ****   {
 1164              		.loc 1 1070 6 view .LVU272
 1165 023c 11B1     		cbz	r1, .L77	@ tmp124,
 1166              		.loc 1 1072 5 is_stmt 1 view .LVU273
 1167              	@ stm32f10x_lib/STM32F10x_StdPeriph_Driver/src/stm32f10x_rcc.c:1072:     RCC->AHBENR |= RCC_AHBPeri
 1168              		.loc 1 1072 17 is_stmt 0 view .LVU274
ARM GAS  /tmp/cc6sR8f9.s 			page 41


 1169 023e 1043     		orrs	r0, r0, r2	@, _2, RCC_AHBPeriph, _1
 1170              	.LVL71:
 1171              	.L79:
 1172              	@ stm32f10x_lib/STM32F10x_StdPeriph_Driver/src/stm32f10x_rcc.c:1076:     RCC->AHBENR &= ~RCC_AHBPer
1073:stm32f10x_lib/STM32F10x_StdPeriph_Driver/src/stm32f10x_rcc.c ****   }
1074:stm32f10x_lib/STM32F10x_StdPeriph_Driver/src/stm32f10x_rcc.c ****   else
1075:stm32f10x_lib/STM32F10x_StdPeriph_Driver/src/stm32f10x_rcc.c ****   {
1076:stm32f10x_lib/STM32F10x_StdPeriph_Driver/src/stm32f10x_rcc.c ****     RCC->AHBENR &= ~RCC_AHBPeriph;
 1173              		.loc 1 1076 17 view .LVU275
 1174 0240 5861     		str	r0, [r3, #20]	@ _5,
 1175              	@ stm32f10x_lib/STM32F10x_StdPeriph_Driver/src/stm32f10x_rcc.c:1078: }
1077:stm32f10x_lib/STM32F10x_StdPeriph_Driver/src/stm32f10x_rcc.c ****   }
1078:stm32f10x_lib/STM32F10x_StdPeriph_Driver/src/stm32f10x_rcc.c **** }
 1176              		.loc 1 1078 1 view .LVU276
 1177 0242 7047     		bx	lr	@
 1178              	.LVL72:
 1179              	.L77:
1076:stm32f10x_lib/STM32F10x_StdPeriph_Driver/src/stm32f10x_rcc.c ****   }
 1180              		.loc 1 1076 5 is_stmt 1 view .LVU277
 1181              	@ stm32f10x_lib/STM32F10x_StdPeriph_Driver/src/stm32f10x_rcc.c:1076:     RCC->AHBENR &= ~RCC_AHBPer
1076:stm32f10x_lib/STM32F10x_StdPeriph_Driver/src/stm32f10x_rcc.c ****   }
 1182              		.loc 1 1076 17 is_stmt 0 view .LVU278
 1183 0244 22EA0000 		bic	r0, r2, r0	@ _5, _3, RCC_AHBPeriph
 1184              	.LVL73:
1076:stm32f10x_lib/STM32F10x_StdPeriph_Driver/src/stm32f10x_rcc.c ****   }
 1185              		.loc 1 1076 17 view .LVU279
 1186 0248 FAE7     		b	.L79		@
 1187              	.L81:
 1188 024a 00BF     		.align	2
 1189              	.L80:
 1190 024c 00100240 		.word	1073876992
 1191              		.cfi_endproc
 1192              	.LFE50:
 1193              		.size	RCC_AHBPeriphClockCmd, .-RCC_AHBPeriphClockCmd
 1194              		.align	1
 1195              		.global	RCC_APB2PeriphClockCmd
 1196              		.syntax unified
 1197              		.thumb
 1198              		.thumb_func
 1199              		.fpu softvfp
 1200              		.type	RCC_APB2PeriphClockCmd, %function
 1201              	RCC_APB2PeriphClockCmd:
 1202              	.LVL74:
 1203              	.LFB51:
1079:stm32f10x_lib/STM32F10x_StdPeriph_Driver/src/stm32f10x_rcc.c **** 
1080:stm32f10x_lib/STM32F10x_StdPeriph_Driver/src/stm32f10x_rcc.c **** /**
1081:stm32f10x_lib/STM32F10x_StdPeriph_Driver/src/stm32f10x_rcc.c ****   * @brief  Enables or disables the High Speed APB (APB2) peripheral clock.
1082:stm32f10x_lib/STM32F10x_StdPeriph_Driver/src/stm32f10x_rcc.c ****   * @param  RCC_APB2Periph: specifies the APB2 peripheral to gates its clock.
1083:stm32f10x_lib/STM32F10x_StdPeriph_Driver/src/stm32f10x_rcc.c ****   *   This parameter can be any combination of the following values:
1084:stm32f10x_lib/STM32F10x_StdPeriph_Driver/src/stm32f10x_rcc.c ****   *     @arg RCC_APB2Periph_AFIO, RCC_APB2Periph_GPIOA, RCC_APB2Periph_GPIOB,
1085:stm32f10x_lib/STM32F10x_StdPeriph_Driver/src/stm32f10x_rcc.c ****   *          RCC_APB2Periph_GPIOC, RCC_APB2Periph_GPIOD, RCC_APB2Periph_GPIOE,
1086:stm32f10x_lib/STM32F10x_StdPeriph_Driver/src/stm32f10x_rcc.c ****   *          RCC_APB2Periph_GPIOF, RCC_APB2Periph_GPIOG, RCC_APB2Periph_ADC1,
1087:stm32f10x_lib/STM32F10x_StdPeriph_Driver/src/stm32f10x_rcc.c ****   *          RCC_APB2Periph_ADC2, RCC_APB2Periph_TIM1, RCC_APB2Periph_SPI1,
1088:stm32f10x_lib/STM32F10x_StdPeriph_Driver/src/stm32f10x_rcc.c ****   *          RCC_APB2Periph_TIM8, RCC_APB2Periph_USART1, RCC_APB2Periph_ADC3,
1089:stm32f10x_lib/STM32F10x_StdPeriph_Driver/src/stm32f10x_rcc.c ****   *          RCC_APB2Periph_TIM15, RCC_APB2Periph_TIM16, RCC_APB2Periph_TIM17,
1090:stm32f10x_lib/STM32F10x_StdPeriph_Driver/src/stm32f10x_rcc.c ****   *          RCC_APB2Periph_TIM9, RCC_APB2Periph_TIM10, RCC_APB2Periph_TIM11     
1091:stm32f10x_lib/STM32F10x_StdPeriph_Driver/src/stm32f10x_rcc.c ****   * @param  NewState: new state of the specified peripheral clock.
ARM GAS  /tmp/cc6sR8f9.s 			page 42


1092:stm32f10x_lib/STM32F10x_StdPeriph_Driver/src/stm32f10x_rcc.c ****   *   This parameter can be: ENABLE or DISABLE.
1093:stm32f10x_lib/STM32F10x_StdPeriph_Driver/src/stm32f10x_rcc.c ****   * @retval None
1094:stm32f10x_lib/STM32F10x_StdPeriph_Driver/src/stm32f10x_rcc.c ****   */
1095:stm32f10x_lib/STM32F10x_StdPeriph_Driver/src/stm32f10x_rcc.c **** void RCC_APB2PeriphClockCmd(uint32_t RCC_APB2Periph, FunctionalState NewState)
1096:stm32f10x_lib/STM32F10x_StdPeriph_Driver/src/stm32f10x_rcc.c **** {
 1204              		.loc 1 1096 1 is_stmt 1 view -0
 1205              		.cfi_startproc
 1206              		@ args = 0, pretend = 0, frame = 0
 1207              		@ frame_needed = 0, uses_anonymous_args = 0
 1208              		@ link register save eliminated.
1097:stm32f10x_lib/STM32F10x_StdPeriph_Driver/src/stm32f10x_rcc.c ****   /* Check the parameters */
1098:stm32f10x_lib/STM32F10x_StdPeriph_Driver/src/stm32f10x_rcc.c ****   assert_param(IS_RCC_APB2_PERIPH(RCC_APB2Periph));
 1209              		.loc 1 1098 3 view .LVU281
1099:stm32f10x_lib/STM32F10x_StdPeriph_Driver/src/stm32f10x_rcc.c ****   assert_param(IS_FUNCTIONAL_STATE(NewState));
 1210              		.loc 1 1099 3 view .LVU282
1100:stm32f10x_lib/STM32F10x_StdPeriph_Driver/src/stm32f10x_rcc.c ****   if (NewState != DISABLE)
 1211              		.loc 1 1100 3 view .LVU283
 1212 0250 044B     		ldr	r3, .L86	@ tmp122,
 1213              	@ stm32f10x_lib/STM32F10x_StdPeriph_Driver/src/stm32f10x_rcc.c:1102:     RCC->APB2ENR |= RCC_APB2Pe
1101:stm32f10x_lib/STM32F10x_StdPeriph_Driver/src/stm32f10x_rcc.c ****   {
1102:stm32f10x_lib/STM32F10x_StdPeriph_Driver/src/stm32f10x_rcc.c ****     RCC->APB2ENR |= RCC_APB2Periph;
 1214              		.loc 1 1102 18 is_stmt 0 view .LVU284
 1215 0252 9A69     		ldr	r2, [r3, #24]	@ _1,
 1216              	@ stm32f10x_lib/STM32F10x_StdPeriph_Driver/src/stm32f10x_rcc.c:1100:   if (NewState != DISABLE)
1100:stm32f10x_lib/STM32F10x_StdPeriph_Driver/src/stm32f10x_rcc.c ****   if (NewState != DISABLE)
 1217              		.loc 1 1100 6 view .LVU285
 1218 0254 11B1     		cbz	r1, .L83	@ tmp124,
 1219              		.loc 1 1102 5 is_stmt 1 view .LVU286
 1220              	@ stm32f10x_lib/STM32F10x_StdPeriph_Driver/src/stm32f10x_rcc.c:1102:     RCC->APB2ENR |= RCC_APB2Pe
 1221              		.loc 1 1102 18 is_stmt 0 view .LVU287
 1222 0256 1043     		orrs	r0, r0, r2	@, _2, RCC_APB2Periph, _1
 1223              	.LVL75:
 1224              	.L85:
 1225              	@ stm32f10x_lib/STM32F10x_StdPeriph_Driver/src/stm32f10x_rcc.c:1106:     RCC->APB2ENR &= ~RCC_APB2P
1103:stm32f10x_lib/STM32F10x_StdPeriph_Driver/src/stm32f10x_rcc.c ****   }
1104:stm32f10x_lib/STM32F10x_StdPeriph_Driver/src/stm32f10x_rcc.c ****   else
1105:stm32f10x_lib/STM32F10x_StdPeriph_Driver/src/stm32f10x_rcc.c ****   {
1106:stm32f10x_lib/STM32F10x_StdPeriph_Driver/src/stm32f10x_rcc.c ****     RCC->APB2ENR &= ~RCC_APB2Periph;
 1226              		.loc 1 1106 18 view .LVU288
 1227 0258 9861     		str	r0, [r3, #24]	@ _5,
 1228              	@ stm32f10x_lib/STM32F10x_StdPeriph_Driver/src/stm32f10x_rcc.c:1108: }
1107:stm32f10x_lib/STM32F10x_StdPeriph_Driver/src/stm32f10x_rcc.c ****   }
1108:stm32f10x_lib/STM32F10x_StdPeriph_Driver/src/stm32f10x_rcc.c **** }
 1229              		.loc 1 1108 1 view .LVU289
 1230 025a 7047     		bx	lr	@
 1231              	.LVL76:
 1232              	.L83:
1106:stm32f10x_lib/STM32F10x_StdPeriph_Driver/src/stm32f10x_rcc.c ****   }
 1233              		.loc 1 1106 5 is_stmt 1 view .LVU290
 1234              	@ stm32f10x_lib/STM32F10x_StdPeriph_Driver/src/stm32f10x_rcc.c:1106:     RCC->APB2ENR &= ~RCC_APB2P
1106:stm32f10x_lib/STM32F10x_StdPeriph_Driver/src/stm32f10x_rcc.c ****   }
 1235              		.loc 1 1106 18 is_stmt 0 view .LVU291
 1236 025c 22EA0000 		bic	r0, r2, r0	@ _5, _3, RCC_APB2Periph
 1237              	.LVL77:
1106:stm32f10x_lib/STM32F10x_StdPeriph_Driver/src/stm32f10x_rcc.c ****   }
 1238              		.loc 1 1106 18 view .LVU292
 1239 0260 FAE7     		b	.L85		@
ARM GAS  /tmp/cc6sR8f9.s 			page 43


 1240              	.L87:
 1241 0262 00BF     		.align	2
 1242              	.L86:
 1243 0264 00100240 		.word	1073876992
 1244              		.cfi_endproc
 1245              	.LFE51:
 1246              		.size	RCC_APB2PeriphClockCmd, .-RCC_APB2PeriphClockCmd
 1247              		.align	1
 1248              		.global	RCC_APB1PeriphClockCmd
 1249              		.syntax unified
 1250              		.thumb
 1251              		.thumb_func
 1252              		.fpu softvfp
 1253              		.type	RCC_APB1PeriphClockCmd, %function
 1254              	RCC_APB1PeriphClockCmd:
 1255              	.LVL78:
 1256              	.LFB52:
1109:stm32f10x_lib/STM32F10x_StdPeriph_Driver/src/stm32f10x_rcc.c **** 
1110:stm32f10x_lib/STM32F10x_StdPeriph_Driver/src/stm32f10x_rcc.c **** /**
1111:stm32f10x_lib/STM32F10x_StdPeriph_Driver/src/stm32f10x_rcc.c ****   * @brief  Enables or disables the Low Speed APB (APB1) peripheral clock.
1112:stm32f10x_lib/STM32F10x_StdPeriph_Driver/src/stm32f10x_rcc.c ****   * @param  RCC_APB1Periph: specifies the APB1 peripheral to gates its clock.
1113:stm32f10x_lib/STM32F10x_StdPeriph_Driver/src/stm32f10x_rcc.c ****   *   This parameter can be any combination of the following values:
1114:stm32f10x_lib/STM32F10x_StdPeriph_Driver/src/stm32f10x_rcc.c ****   *     @arg RCC_APB1Periph_TIM2, RCC_APB1Periph_TIM3, RCC_APB1Periph_TIM4,
1115:stm32f10x_lib/STM32F10x_StdPeriph_Driver/src/stm32f10x_rcc.c ****   *          RCC_APB1Periph_TIM5, RCC_APB1Periph_TIM6, RCC_APB1Periph_TIM7,
1116:stm32f10x_lib/STM32F10x_StdPeriph_Driver/src/stm32f10x_rcc.c ****   *          RCC_APB1Periph_WWDG, RCC_APB1Periph_SPI2, RCC_APB1Periph_SPI3,
1117:stm32f10x_lib/STM32F10x_StdPeriph_Driver/src/stm32f10x_rcc.c ****   *          RCC_APB1Periph_USART2, RCC_APB1Periph_USART3, RCC_APB1Periph_USART4, 
1118:stm32f10x_lib/STM32F10x_StdPeriph_Driver/src/stm32f10x_rcc.c ****   *          RCC_APB1Periph_USART5, RCC_APB1Periph_I2C1, RCC_APB1Periph_I2C2,
1119:stm32f10x_lib/STM32F10x_StdPeriph_Driver/src/stm32f10x_rcc.c ****   *          RCC_APB1Periph_USB, RCC_APB1Periph_CAN1, RCC_APB1Periph_BKP,
1120:stm32f10x_lib/STM32F10x_StdPeriph_Driver/src/stm32f10x_rcc.c ****   *          RCC_APB1Periph_PWR, RCC_APB1Periph_DAC, RCC_APB1Periph_CEC,
1121:stm32f10x_lib/STM32F10x_StdPeriph_Driver/src/stm32f10x_rcc.c ****   *          RCC_APB1Periph_TIM12, RCC_APB1Periph_TIM13, RCC_APB1Periph_TIM14
1122:stm32f10x_lib/STM32F10x_StdPeriph_Driver/src/stm32f10x_rcc.c ****   * @param  NewState: new state of the specified peripheral clock.
1123:stm32f10x_lib/STM32F10x_StdPeriph_Driver/src/stm32f10x_rcc.c ****   *   This parameter can be: ENABLE or DISABLE.
1124:stm32f10x_lib/STM32F10x_StdPeriph_Driver/src/stm32f10x_rcc.c ****   * @retval None
1125:stm32f10x_lib/STM32F10x_StdPeriph_Driver/src/stm32f10x_rcc.c ****   */
1126:stm32f10x_lib/STM32F10x_StdPeriph_Driver/src/stm32f10x_rcc.c **** void RCC_APB1PeriphClockCmd(uint32_t RCC_APB1Periph, FunctionalState NewState)
1127:stm32f10x_lib/STM32F10x_StdPeriph_Driver/src/stm32f10x_rcc.c **** {
 1257              		.loc 1 1127 1 is_stmt 1 view -0
 1258              		.cfi_startproc
 1259              		@ args = 0, pretend = 0, frame = 0
 1260              		@ frame_needed = 0, uses_anonymous_args = 0
 1261              		@ link register save eliminated.
1128:stm32f10x_lib/STM32F10x_StdPeriph_Driver/src/stm32f10x_rcc.c ****   /* Check the parameters */
1129:stm32f10x_lib/STM32F10x_StdPeriph_Driver/src/stm32f10x_rcc.c ****   assert_param(IS_RCC_APB1_PERIPH(RCC_APB1Periph));
 1262              		.loc 1 1129 3 view .LVU294
1130:stm32f10x_lib/STM32F10x_StdPeriph_Driver/src/stm32f10x_rcc.c ****   assert_param(IS_FUNCTIONAL_STATE(NewState));
 1263              		.loc 1 1130 3 view .LVU295
1131:stm32f10x_lib/STM32F10x_StdPeriph_Driver/src/stm32f10x_rcc.c ****   if (NewState != DISABLE)
 1264              		.loc 1 1131 3 view .LVU296
 1265 0268 044B     		ldr	r3, .L92	@ tmp122,
 1266              	@ stm32f10x_lib/STM32F10x_StdPeriph_Driver/src/stm32f10x_rcc.c:1133:     RCC->APB1ENR |= RCC_APB1Pe
1132:stm32f10x_lib/STM32F10x_StdPeriph_Driver/src/stm32f10x_rcc.c ****   {
1133:stm32f10x_lib/STM32F10x_StdPeriph_Driver/src/stm32f10x_rcc.c ****     RCC->APB1ENR |= RCC_APB1Periph;
 1267              		.loc 1 1133 18 is_stmt 0 view .LVU297
 1268 026a DA69     		ldr	r2, [r3, #28]	@ _1,
 1269              	@ stm32f10x_lib/STM32F10x_StdPeriph_Driver/src/stm32f10x_rcc.c:1131:   if (NewState != DISABLE)
1131:stm32f10x_lib/STM32F10x_StdPeriph_Driver/src/stm32f10x_rcc.c ****   if (NewState != DISABLE)
 1270              		.loc 1 1131 6 view .LVU298
ARM GAS  /tmp/cc6sR8f9.s 			page 44


 1271 026c 11B1     		cbz	r1, .L89	@ tmp124,
 1272              		.loc 1 1133 5 is_stmt 1 view .LVU299
 1273              	@ stm32f10x_lib/STM32F10x_StdPeriph_Driver/src/stm32f10x_rcc.c:1133:     RCC->APB1ENR |= RCC_APB1Pe
 1274              		.loc 1 1133 18 is_stmt 0 view .LVU300
 1275 026e 1043     		orrs	r0, r0, r2	@, _2, RCC_APB1Periph, _1
 1276              	.LVL79:
 1277              	.L91:
 1278              	@ stm32f10x_lib/STM32F10x_StdPeriph_Driver/src/stm32f10x_rcc.c:1137:     RCC->APB1ENR &= ~RCC_APB1P
1134:stm32f10x_lib/STM32F10x_StdPeriph_Driver/src/stm32f10x_rcc.c ****   }
1135:stm32f10x_lib/STM32F10x_StdPeriph_Driver/src/stm32f10x_rcc.c ****   else
1136:stm32f10x_lib/STM32F10x_StdPeriph_Driver/src/stm32f10x_rcc.c ****   {
1137:stm32f10x_lib/STM32F10x_StdPeriph_Driver/src/stm32f10x_rcc.c ****     RCC->APB1ENR &= ~RCC_APB1Periph;
 1279              		.loc 1 1137 18 view .LVU301
 1280 0270 D861     		str	r0, [r3, #28]	@ _5,
 1281              	@ stm32f10x_lib/STM32F10x_StdPeriph_Driver/src/stm32f10x_rcc.c:1139: }
1138:stm32f10x_lib/STM32F10x_StdPeriph_Driver/src/stm32f10x_rcc.c ****   }
1139:stm32f10x_lib/STM32F10x_StdPeriph_Driver/src/stm32f10x_rcc.c **** }
 1282              		.loc 1 1139 1 view .LVU302
 1283 0272 7047     		bx	lr	@
 1284              	.LVL80:
 1285              	.L89:
1137:stm32f10x_lib/STM32F10x_StdPeriph_Driver/src/stm32f10x_rcc.c ****   }
 1286              		.loc 1 1137 5 is_stmt 1 view .LVU303
 1287              	@ stm32f10x_lib/STM32F10x_StdPeriph_Driver/src/stm32f10x_rcc.c:1137:     RCC->APB1ENR &= ~RCC_APB1P
1137:stm32f10x_lib/STM32F10x_StdPeriph_Driver/src/stm32f10x_rcc.c ****   }
 1288              		.loc 1 1137 18 is_stmt 0 view .LVU304
 1289 0274 22EA0000 		bic	r0, r2, r0	@ _5, _3, RCC_APB1Periph
 1290              	.LVL81:
1137:stm32f10x_lib/STM32F10x_StdPeriph_Driver/src/stm32f10x_rcc.c ****   }
 1291              		.loc 1 1137 18 view .LVU305
 1292 0278 FAE7     		b	.L91		@
 1293              	.L93:
 1294 027a 00BF     		.align	2
 1295              	.L92:
 1296 027c 00100240 		.word	1073876992
 1297              		.cfi_endproc
 1298              	.LFE52:
 1299              		.size	RCC_APB1PeriphClockCmd, .-RCC_APB1PeriphClockCmd
 1300              		.align	1
 1301              		.global	RCC_APB2PeriphResetCmd
 1302              		.syntax unified
 1303              		.thumb
 1304              		.thumb_func
 1305              		.fpu softvfp
 1306              		.type	RCC_APB2PeriphResetCmd, %function
 1307              	RCC_APB2PeriphResetCmd:
 1308              	.LVL82:
 1309              	.LFB53:
1140:stm32f10x_lib/STM32F10x_StdPeriph_Driver/src/stm32f10x_rcc.c **** 
1141:stm32f10x_lib/STM32F10x_StdPeriph_Driver/src/stm32f10x_rcc.c **** #ifdef STM32F10X_CL
1142:stm32f10x_lib/STM32F10x_StdPeriph_Driver/src/stm32f10x_rcc.c **** /**
1143:stm32f10x_lib/STM32F10x_StdPeriph_Driver/src/stm32f10x_rcc.c ****   * @brief  Forces or releases AHB peripheral reset.
1144:stm32f10x_lib/STM32F10x_StdPeriph_Driver/src/stm32f10x_rcc.c ****   * @note   This function applies only to STM32 Connectivity line devices.
1145:stm32f10x_lib/STM32F10x_StdPeriph_Driver/src/stm32f10x_rcc.c ****   * @param  RCC_AHBPeriph: specifies the AHB peripheral to reset.
1146:stm32f10x_lib/STM32F10x_StdPeriph_Driver/src/stm32f10x_rcc.c ****   *   This parameter can be any combination of the following values:
1147:stm32f10x_lib/STM32F10x_StdPeriph_Driver/src/stm32f10x_rcc.c ****   *     @arg RCC_AHBPeriph_OTG_FS 
1148:stm32f10x_lib/STM32F10x_StdPeriph_Driver/src/stm32f10x_rcc.c ****   *     @arg RCC_AHBPeriph_ETH_MAC
ARM GAS  /tmp/cc6sR8f9.s 			page 45


1149:stm32f10x_lib/STM32F10x_StdPeriph_Driver/src/stm32f10x_rcc.c ****   * @param  NewState: new state of the specified peripheral reset.
1150:stm32f10x_lib/STM32F10x_StdPeriph_Driver/src/stm32f10x_rcc.c ****   *   This parameter can be: ENABLE or DISABLE.
1151:stm32f10x_lib/STM32F10x_StdPeriph_Driver/src/stm32f10x_rcc.c ****   * @retval None
1152:stm32f10x_lib/STM32F10x_StdPeriph_Driver/src/stm32f10x_rcc.c ****   */
1153:stm32f10x_lib/STM32F10x_StdPeriph_Driver/src/stm32f10x_rcc.c **** void RCC_AHBPeriphResetCmd(uint32_t RCC_AHBPeriph, FunctionalState NewState)
1154:stm32f10x_lib/STM32F10x_StdPeriph_Driver/src/stm32f10x_rcc.c **** {
1155:stm32f10x_lib/STM32F10x_StdPeriph_Driver/src/stm32f10x_rcc.c ****   /* Check the parameters */
1156:stm32f10x_lib/STM32F10x_StdPeriph_Driver/src/stm32f10x_rcc.c ****   assert_param(IS_RCC_AHB_PERIPH_RESET(RCC_AHBPeriph));
1157:stm32f10x_lib/STM32F10x_StdPeriph_Driver/src/stm32f10x_rcc.c ****   assert_param(IS_FUNCTIONAL_STATE(NewState));
1158:stm32f10x_lib/STM32F10x_StdPeriph_Driver/src/stm32f10x_rcc.c **** 
1159:stm32f10x_lib/STM32F10x_StdPeriph_Driver/src/stm32f10x_rcc.c ****   if (NewState != DISABLE)
1160:stm32f10x_lib/STM32F10x_StdPeriph_Driver/src/stm32f10x_rcc.c ****   {
1161:stm32f10x_lib/STM32F10x_StdPeriph_Driver/src/stm32f10x_rcc.c ****     RCC->AHBRSTR |= RCC_AHBPeriph;
1162:stm32f10x_lib/STM32F10x_StdPeriph_Driver/src/stm32f10x_rcc.c ****   }
1163:stm32f10x_lib/STM32F10x_StdPeriph_Driver/src/stm32f10x_rcc.c ****   else
1164:stm32f10x_lib/STM32F10x_StdPeriph_Driver/src/stm32f10x_rcc.c ****   {
1165:stm32f10x_lib/STM32F10x_StdPeriph_Driver/src/stm32f10x_rcc.c ****     RCC->AHBRSTR &= ~RCC_AHBPeriph;
1166:stm32f10x_lib/STM32F10x_StdPeriph_Driver/src/stm32f10x_rcc.c ****   }
1167:stm32f10x_lib/STM32F10x_StdPeriph_Driver/src/stm32f10x_rcc.c **** }
1168:stm32f10x_lib/STM32F10x_StdPeriph_Driver/src/stm32f10x_rcc.c **** #endif /* STM32F10X_CL */ 
1169:stm32f10x_lib/STM32F10x_StdPeriph_Driver/src/stm32f10x_rcc.c **** 
1170:stm32f10x_lib/STM32F10x_StdPeriph_Driver/src/stm32f10x_rcc.c **** /**
1171:stm32f10x_lib/STM32F10x_StdPeriph_Driver/src/stm32f10x_rcc.c ****   * @brief  Forces or releases High Speed APB (APB2) peripheral reset.
1172:stm32f10x_lib/STM32F10x_StdPeriph_Driver/src/stm32f10x_rcc.c ****   * @param  RCC_APB2Periph: specifies the APB2 peripheral to reset.
1173:stm32f10x_lib/STM32F10x_StdPeriph_Driver/src/stm32f10x_rcc.c ****   *   This parameter can be any combination of the following values:
1174:stm32f10x_lib/STM32F10x_StdPeriph_Driver/src/stm32f10x_rcc.c ****   *     @arg RCC_APB2Periph_AFIO, RCC_APB2Periph_GPIOA, RCC_APB2Periph_GPIOB,
1175:stm32f10x_lib/STM32F10x_StdPeriph_Driver/src/stm32f10x_rcc.c ****   *          RCC_APB2Periph_GPIOC, RCC_APB2Periph_GPIOD, RCC_APB2Periph_GPIOE,
1176:stm32f10x_lib/STM32F10x_StdPeriph_Driver/src/stm32f10x_rcc.c ****   *          RCC_APB2Periph_GPIOF, RCC_APB2Periph_GPIOG, RCC_APB2Periph_ADC1,
1177:stm32f10x_lib/STM32F10x_StdPeriph_Driver/src/stm32f10x_rcc.c ****   *          RCC_APB2Periph_ADC2, RCC_APB2Periph_TIM1, RCC_APB2Periph_SPI1,
1178:stm32f10x_lib/STM32F10x_StdPeriph_Driver/src/stm32f10x_rcc.c ****   *          RCC_APB2Periph_TIM8, RCC_APB2Periph_USART1, RCC_APB2Periph_ADC3,
1179:stm32f10x_lib/STM32F10x_StdPeriph_Driver/src/stm32f10x_rcc.c ****   *          RCC_APB2Periph_TIM15, RCC_APB2Periph_TIM16, RCC_APB2Periph_TIM17,
1180:stm32f10x_lib/STM32F10x_StdPeriph_Driver/src/stm32f10x_rcc.c ****   *          RCC_APB2Periph_TIM9, RCC_APB2Periph_TIM10, RCC_APB2Periph_TIM11  
1181:stm32f10x_lib/STM32F10x_StdPeriph_Driver/src/stm32f10x_rcc.c ****   * @param  NewState: new state of the specified peripheral reset.
1182:stm32f10x_lib/STM32F10x_StdPeriph_Driver/src/stm32f10x_rcc.c ****   *   This parameter can be: ENABLE or DISABLE.
1183:stm32f10x_lib/STM32F10x_StdPeriph_Driver/src/stm32f10x_rcc.c ****   * @retval None
1184:stm32f10x_lib/STM32F10x_StdPeriph_Driver/src/stm32f10x_rcc.c ****   */
1185:stm32f10x_lib/STM32F10x_StdPeriph_Driver/src/stm32f10x_rcc.c **** void RCC_APB2PeriphResetCmd(uint32_t RCC_APB2Periph, FunctionalState NewState)
1186:stm32f10x_lib/STM32F10x_StdPeriph_Driver/src/stm32f10x_rcc.c **** {
 1310              		.loc 1 1186 1 is_stmt 1 view -0
 1311              		.cfi_startproc
 1312              		@ args = 0, pretend = 0, frame = 0
 1313              		@ frame_needed = 0, uses_anonymous_args = 0
 1314              		@ link register save eliminated.
1187:stm32f10x_lib/STM32F10x_StdPeriph_Driver/src/stm32f10x_rcc.c ****   /* Check the parameters */
1188:stm32f10x_lib/STM32F10x_StdPeriph_Driver/src/stm32f10x_rcc.c ****   assert_param(IS_RCC_APB2_PERIPH(RCC_APB2Periph));
 1315              		.loc 1 1188 3 view .LVU307
1189:stm32f10x_lib/STM32F10x_StdPeriph_Driver/src/stm32f10x_rcc.c ****   assert_param(IS_FUNCTIONAL_STATE(NewState));
 1316              		.loc 1 1189 3 view .LVU308
1190:stm32f10x_lib/STM32F10x_StdPeriph_Driver/src/stm32f10x_rcc.c ****   if (NewState != DISABLE)
 1317              		.loc 1 1190 3 view .LVU309
 1318 0280 044B     		ldr	r3, .L98	@ tmp122,
 1319              	@ stm32f10x_lib/STM32F10x_StdPeriph_Driver/src/stm32f10x_rcc.c:1192:     RCC->APB2RSTR |= RCC_APB2P
1191:stm32f10x_lib/STM32F10x_StdPeriph_Driver/src/stm32f10x_rcc.c ****   {
1192:stm32f10x_lib/STM32F10x_StdPeriph_Driver/src/stm32f10x_rcc.c ****     RCC->APB2RSTR |= RCC_APB2Periph;
 1320              		.loc 1 1192 19 is_stmt 0 view .LVU310
 1321 0282 DA68     		ldr	r2, [r3, #12]	@ _1,
 1322              	@ stm32f10x_lib/STM32F10x_StdPeriph_Driver/src/stm32f10x_rcc.c:1190:   if (NewState != DISABLE)
ARM GAS  /tmp/cc6sR8f9.s 			page 46


1190:stm32f10x_lib/STM32F10x_StdPeriph_Driver/src/stm32f10x_rcc.c ****   if (NewState != DISABLE)
 1323              		.loc 1 1190 6 view .LVU311
 1324 0284 11B1     		cbz	r1, .L95	@ tmp124,
 1325              		.loc 1 1192 5 is_stmt 1 view .LVU312
 1326              	@ stm32f10x_lib/STM32F10x_StdPeriph_Driver/src/stm32f10x_rcc.c:1192:     RCC->APB2RSTR |= RCC_APB2P
 1327              		.loc 1 1192 19 is_stmt 0 view .LVU313
 1328 0286 1043     		orrs	r0, r0, r2	@, _2, RCC_APB2Periph, _1
 1329              	.LVL83:
 1330              	.L97:
 1331              	@ stm32f10x_lib/STM32F10x_StdPeriph_Driver/src/stm32f10x_rcc.c:1196:     RCC->APB2RSTR &= ~RCC_APB2
1193:stm32f10x_lib/STM32F10x_StdPeriph_Driver/src/stm32f10x_rcc.c ****   }
1194:stm32f10x_lib/STM32F10x_StdPeriph_Driver/src/stm32f10x_rcc.c ****   else
1195:stm32f10x_lib/STM32F10x_StdPeriph_Driver/src/stm32f10x_rcc.c ****   {
1196:stm32f10x_lib/STM32F10x_StdPeriph_Driver/src/stm32f10x_rcc.c ****     RCC->APB2RSTR &= ~RCC_APB2Periph;
 1332              		.loc 1 1196 19 view .LVU314
 1333 0288 D860     		str	r0, [r3, #12]	@ _5,
 1334              	@ stm32f10x_lib/STM32F10x_StdPeriph_Driver/src/stm32f10x_rcc.c:1198: }
1197:stm32f10x_lib/STM32F10x_StdPeriph_Driver/src/stm32f10x_rcc.c ****   }
1198:stm32f10x_lib/STM32F10x_StdPeriph_Driver/src/stm32f10x_rcc.c **** }
 1335              		.loc 1 1198 1 view .LVU315
 1336 028a 7047     		bx	lr	@
 1337              	.LVL84:
 1338              	.L95:
1196:stm32f10x_lib/STM32F10x_StdPeriph_Driver/src/stm32f10x_rcc.c ****   }
 1339              		.loc 1 1196 5 is_stmt 1 view .LVU316
 1340              	@ stm32f10x_lib/STM32F10x_StdPeriph_Driver/src/stm32f10x_rcc.c:1196:     RCC->APB2RSTR &= ~RCC_APB2
1196:stm32f10x_lib/STM32F10x_StdPeriph_Driver/src/stm32f10x_rcc.c ****   }
 1341              		.loc 1 1196 19 is_stmt 0 view .LVU317
 1342 028c 22EA0000 		bic	r0, r2, r0	@ _5, _3, RCC_APB2Periph
 1343              	.LVL85:
1196:stm32f10x_lib/STM32F10x_StdPeriph_Driver/src/stm32f10x_rcc.c ****   }
 1344              		.loc 1 1196 19 view .LVU318
 1345 0290 FAE7     		b	.L97		@
 1346              	.L99:
 1347 0292 00BF     		.align	2
 1348              	.L98:
 1349 0294 00100240 		.word	1073876992
 1350              		.cfi_endproc
 1351              	.LFE53:
 1352              		.size	RCC_APB2PeriphResetCmd, .-RCC_APB2PeriphResetCmd
 1353              		.align	1
 1354              		.global	RCC_APB1PeriphResetCmd
 1355              		.syntax unified
 1356              		.thumb
 1357              		.thumb_func
 1358              		.fpu softvfp
 1359              		.type	RCC_APB1PeriphResetCmd, %function
 1360              	RCC_APB1PeriphResetCmd:
 1361              	.LVL86:
 1362              	.LFB54:
1199:stm32f10x_lib/STM32F10x_StdPeriph_Driver/src/stm32f10x_rcc.c **** 
1200:stm32f10x_lib/STM32F10x_StdPeriph_Driver/src/stm32f10x_rcc.c **** /**
1201:stm32f10x_lib/STM32F10x_StdPeriph_Driver/src/stm32f10x_rcc.c ****   * @brief  Forces or releases Low Speed APB (APB1) peripheral reset.
1202:stm32f10x_lib/STM32F10x_StdPeriph_Driver/src/stm32f10x_rcc.c ****   * @param  RCC_APB1Periph: specifies the APB1 peripheral to reset.
1203:stm32f10x_lib/STM32F10x_StdPeriph_Driver/src/stm32f10x_rcc.c ****   *   This parameter can be any combination of the following values:
1204:stm32f10x_lib/STM32F10x_StdPeriph_Driver/src/stm32f10x_rcc.c ****   *     @arg RCC_APB1Periph_TIM2, RCC_APB1Periph_TIM3, RCC_APB1Periph_TIM4,
1205:stm32f10x_lib/STM32F10x_StdPeriph_Driver/src/stm32f10x_rcc.c ****   *          RCC_APB1Periph_TIM5, RCC_APB1Periph_TIM6, RCC_APB1Periph_TIM7,
ARM GAS  /tmp/cc6sR8f9.s 			page 47


1206:stm32f10x_lib/STM32F10x_StdPeriph_Driver/src/stm32f10x_rcc.c ****   *          RCC_APB1Periph_WWDG, RCC_APB1Periph_SPI2, RCC_APB1Periph_SPI3,
1207:stm32f10x_lib/STM32F10x_StdPeriph_Driver/src/stm32f10x_rcc.c ****   *          RCC_APB1Periph_USART2, RCC_APB1Periph_USART3, RCC_APB1Periph_USART4, 
1208:stm32f10x_lib/STM32F10x_StdPeriph_Driver/src/stm32f10x_rcc.c ****   *          RCC_APB1Periph_USART5, RCC_APB1Periph_I2C1, RCC_APB1Periph_I2C2,
1209:stm32f10x_lib/STM32F10x_StdPeriph_Driver/src/stm32f10x_rcc.c ****   *          RCC_APB1Periph_USB, RCC_APB1Periph_CAN1, RCC_APB1Periph_BKP,
1210:stm32f10x_lib/STM32F10x_StdPeriph_Driver/src/stm32f10x_rcc.c ****   *          RCC_APB1Periph_PWR, RCC_APB1Periph_DAC, RCC_APB1Periph_CEC,
1211:stm32f10x_lib/STM32F10x_StdPeriph_Driver/src/stm32f10x_rcc.c ****   *          RCC_APB1Periph_TIM12, RCC_APB1Periph_TIM13, RCC_APB1Periph_TIM14  
1212:stm32f10x_lib/STM32F10x_StdPeriph_Driver/src/stm32f10x_rcc.c ****   * @param  NewState: new state of the specified peripheral clock.
1213:stm32f10x_lib/STM32F10x_StdPeriph_Driver/src/stm32f10x_rcc.c ****   *   This parameter can be: ENABLE or DISABLE.
1214:stm32f10x_lib/STM32F10x_StdPeriph_Driver/src/stm32f10x_rcc.c ****   * @retval None
1215:stm32f10x_lib/STM32F10x_StdPeriph_Driver/src/stm32f10x_rcc.c ****   */
1216:stm32f10x_lib/STM32F10x_StdPeriph_Driver/src/stm32f10x_rcc.c **** void RCC_APB1PeriphResetCmd(uint32_t RCC_APB1Periph, FunctionalState NewState)
1217:stm32f10x_lib/STM32F10x_StdPeriph_Driver/src/stm32f10x_rcc.c **** {
 1363              		.loc 1 1217 1 is_stmt 1 view -0
 1364              		.cfi_startproc
 1365              		@ args = 0, pretend = 0, frame = 0
 1366              		@ frame_needed = 0, uses_anonymous_args = 0
 1367              		@ link register save eliminated.
1218:stm32f10x_lib/STM32F10x_StdPeriph_Driver/src/stm32f10x_rcc.c ****   /* Check the parameters */
1219:stm32f10x_lib/STM32F10x_StdPeriph_Driver/src/stm32f10x_rcc.c ****   assert_param(IS_RCC_APB1_PERIPH(RCC_APB1Periph));
 1368              		.loc 1 1219 3 view .LVU320
1220:stm32f10x_lib/STM32F10x_StdPeriph_Driver/src/stm32f10x_rcc.c ****   assert_param(IS_FUNCTIONAL_STATE(NewState));
 1369              		.loc 1 1220 3 view .LVU321
1221:stm32f10x_lib/STM32F10x_StdPeriph_Driver/src/stm32f10x_rcc.c ****   if (NewState != DISABLE)
 1370              		.loc 1 1221 3 view .LVU322
 1371 0298 044B     		ldr	r3, .L104	@ tmp122,
 1372              	@ stm32f10x_lib/STM32F10x_StdPeriph_Driver/src/stm32f10x_rcc.c:1223:     RCC->APB1RSTR |= RCC_APB1P
1222:stm32f10x_lib/STM32F10x_StdPeriph_Driver/src/stm32f10x_rcc.c ****   {
1223:stm32f10x_lib/STM32F10x_StdPeriph_Driver/src/stm32f10x_rcc.c ****     RCC->APB1RSTR |= RCC_APB1Periph;
 1373              		.loc 1 1223 19 is_stmt 0 view .LVU323
 1374 029a 1A69     		ldr	r2, [r3, #16]	@ _1,
 1375              	@ stm32f10x_lib/STM32F10x_StdPeriph_Driver/src/stm32f10x_rcc.c:1221:   if (NewState != DISABLE)
1221:stm32f10x_lib/STM32F10x_StdPeriph_Driver/src/stm32f10x_rcc.c ****   if (NewState != DISABLE)
 1376              		.loc 1 1221 6 view .LVU324
 1377 029c 11B1     		cbz	r1, .L101	@ tmp124,
 1378              		.loc 1 1223 5 is_stmt 1 view .LVU325
 1379              	@ stm32f10x_lib/STM32F10x_StdPeriph_Driver/src/stm32f10x_rcc.c:1223:     RCC->APB1RSTR |= RCC_APB1P
 1380              		.loc 1 1223 19 is_stmt 0 view .LVU326
 1381 029e 1043     		orrs	r0, r0, r2	@, _2, RCC_APB1Periph, _1
 1382              	.LVL87:
 1383              	.L103:
 1384              	@ stm32f10x_lib/STM32F10x_StdPeriph_Driver/src/stm32f10x_rcc.c:1227:     RCC->APB1RSTR &= ~RCC_APB1
1224:stm32f10x_lib/STM32F10x_StdPeriph_Driver/src/stm32f10x_rcc.c ****   }
1225:stm32f10x_lib/STM32F10x_StdPeriph_Driver/src/stm32f10x_rcc.c ****   else
1226:stm32f10x_lib/STM32F10x_StdPeriph_Driver/src/stm32f10x_rcc.c ****   {
1227:stm32f10x_lib/STM32F10x_StdPeriph_Driver/src/stm32f10x_rcc.c ****     RCC->APB1RSTR &= ~RCC_APB1Periph;
 1385              		.loc 1 1227 19 view .LVU327
 1386 02a0 1861     		str	r0, [r3, #16]	@ _5,
 1387              	@ stm32f10x_lib/STM32F10x_StdPeriph_Driver/src/stm32f10x_rcc.c:1229: }
1228:stm32f10x_lib/STM32F10x_StdPeriph_Driver/src/stm32f10x_rcc.c ****   }
1229:stm32f10x_lib/STM32F10x_StdPeriph_Driver/src/stm32f10x_rcc.c **** }
 1388              		.loc 1 1229 1 view .LVU328
 1389 02a2 7047     		bx	lr	@
 1390              	.LVL88:
 1391              	.L101:
1227:stm32f10x_lib/STM32F10x_StdPeriph_Driver/src/stm32f10x_rcc.c ****   }
 1392              		.loc 1 1227 5 is_stmt 1 view .LVU329
 1393              	@ stm32f10x_lib/STM32F10x_StdPeriph_Driver/src/stm32f10x_rcc.c:1227:     RCC->APB1RSTR &= ~RCC_APB1
ARM GAS  /tmp/cc6sR8f9.s 			page 48


1227:stm32f10x_lib/STM32F10x_StdPeriph_Driver/src/stm32f10x_rcc.c ****   }
 1394              		.loc 1 1227 19 is_stmt 0 view .LVU330
 1395 02a4 22EA0000 		bic	r0, r2, r0	@ _5, _3, RCC_APB1Periph
 1396              	.LVL89:
1227:stm32f10x_lib/STM32F10x_StdPeriph_Driver/src/stm32f10x_rcc.c ****   }
 1397              		.loc 1 1227 19 view .LVU331
 1398 02a8 FAE7     		b	.L103		@
 1399              	.L105:
 1400 02aa 00BF     		.align	2
 1401              	.L104:
 1402 02ac 00100240 		.word	1073876992
 1403              		.cfi_endproc
 1404              	.LFE54:
 1405              		.size	RCC_APB1PeriphResetCmd, .-RCC_APB1PeriphResetCmd
 1406              		.align	1
 1407              		.global	RCC_BackupResetCmd
 1408              		.syntax unified
 1409              		.thumb
 1410              		.thumb_func
 1411              		.fpu softvfp
 1412              		.type	RCC_BackupResetCmd, %function
 1413              	RCC_BackupResetCmd:
 1414              	.LVL90:
 1415              	.LFB55:
1230:stm32f10x_lib/STM32F10x_StdPeriph_Driver/src/stm32f10x_rcc.c **** 
1231:stm32f10x_lib/STM32F10x_StdPeriph_Driver/src/stm32f10x_rcc.c **** /**
1232:stm32f10x_lib/STM32F10x_StdPeriph_Driver/src/stm32f10x_rcc.c ****   * @brief  Forces or releases the Backup domain reset.
1233:stm32f10x_lib/STM32F10x_StdPeriph_Driver/src/stm32f10x_rcc.c ****   * @param  NewState: new state of the Backup domain reset.
1234:stm32f10x_lib/STM32F10x_StdPeriph_Driver/src/stm32f10x_rcc.c ****   *   This parameter can be: ENABLE or DISABLE.
1235:stm32f10x_lib/STM32F10x_StdPeriph_Driver/src/stm32f10x_rcc.c ****   * @retval None
1236:stm32f10x_lib/STM32F10x_StdPeriph_Driver/src/stm32f10x_rcc.c ****   */
1237:stm32f10x_lib/STM32F10x_StdPeriph_Driver/src/stm32f10x_rcc.c **** void RCC_BackupResetCmd(FunctionalState NewState)
1238:stm32f10x_lib/STM32F10x_StdPeriph_Driver/src/stm32f10x_rcc.c **** {
 1416              		.loc 1 1238 1 is_stmt 1 view -0
 1417              		.cfi_startproc
 1418              		@ args = 0, pretend = 0, frame = 0
 1419              		@ frame_needed = 0, uses_anonymous_args = 0
 1420              		@ link register save eliminated.
1239:stm32f10x_lib/STM32F10x_StdPeriph_Driver/src/stm32f10x_rcc.c ****   /* Check the parameters */
1240:stm32f10x_lib/STM32F10x_StdPeriph_Driver/src/stm32f10x_rcc.c ****   assert_param(IS_FUNCTIONAL_STATE(NewState));
 1421              		.loc 1 1240 3 view .LVU333
1241:stm32f10x_lib/STM32F10x_StdPeriph_Driver/src/stm32f10x_rcc.c ****   *(__IO uint32_t *) BDCR_BDRST_BB = (uint32_t)NewState;
 1422              		.loc 1 1241 3 view .LVU334
 1423              	@ stm32f10x_lib/STM32F10x_StdPeriph_Driver/src/stm32f10x_rcc.c:1241:   *(__IO uint32_t *) BDCR_BDRS
 1424              		.loc 1 1241 36 is_stmt 0 view .LVU335
 1425 02b0 014B     		ldr	r3, .L107	@ tmp112,
 1426 02b2 1860     		str	r0, [r3]	@ NewState, MEM[(volatile uint32_t *)1111622720B]
 1427              	@ stm32f10x_lib/STM32F10x_StdPeriph_Driver/src/stm32f10x_rcc.c:1242: }
1242:stm32f10x_lib/STM32F10x_StdPeriph_Driver/src/stm32f10x_rcc.c **** }
 1428              		.loc 1 1242 1 view .LVU336
 1429 02b4 7047     		bx	lr	@
 1430              	.L108:
 1431 02b6 00BF     		.align	2
 1432              	.L107:
 1433 02b8 40044242 		.word	1111622720
 1434              		.cfi_endproc
 1435              	.LFE55:
ARM GAS  /tmp/cc6sR8f9.s 			page 49


 1436              		.size	RCC_BackupResetCmd, .-RCC_BackupResetCmd
 1437              		.align	1
 1438              		.global	RCC_ClockSecuritySystemCmd
 1439              		.syntax unified
 1440              		.thumb
 1441              		.thumb_func
 1442              		.fpu softvfp
 1443              		.type	RCC_ClockSecuritySystemCmd, %function
 1444              	RCC_ClockSecuritySystemCmd:
 1445              	.LVL91:
 1446              	.LFB56:
1243:stm32f10x_lib/STM32F10x_StdPeriph_Driver/src/stm32f10x_rcc.c **** 
1244:stm32f10x_lib/STM32F10x_StdPeriph_Driver/src/stm32f10x_rcc.c **** /**
1245:stm32f10x_lib/STM32F10x_StdPeriph_Driver/src/stm32f10x_rcc.c ****   * @brief  Enables or disables the Clock Security System.
1246:stm32f10x_lib/STM32F10x_StdPeriph_Driver/src/stm32f10x_rcc.c ****   * @param  NewState: new state of the Clock Security System..
1247:stm32f10x_lib/STM32F10x_StdPeriph_Driver/src/stm32f10x_rcc.c ****   *   This parameter can be: ENABLE or DISABLE.
1248:stm32f10x_lib/STM32F10x_StdPeriph_Driver/src/stm32f10x_rcc.c ****   * @retval None
1249:stm32f10x_lib/STM32F10x_StdPeriph_Driver/src/stm32f10x_rcc.c ****   */
1250:stm32f10x_lib/STM32F10x_StdPeriph_Driver/src/stm32f10x_rcc.c **** void RCC_ClockSecuritySystemCmd(FunctionalState NewState)
1251:stm32f10x_lib/STM32F10x_StdPeriph_Driver/src/stm32f10x_rcc.c **** {
 1447              		.loc 1 1251 1 is_stmt 1 view -0
 1448              		.cfi_startproc
 1449              		@ args = 0, pretend = 0, frame = 0
 1450              		@ frame_needed = 0, uses_anonymous_args = 0
 1451              		@ link register save eliminated.
1252:stm32f10x_lib/STM32F10x_StdPeriph_Driver/src/stm32f10x_rcc.c ****   /* Check the parameters */
1253:stm32f10x_lib/STM32F10x_StdPeriph_Driver/src/stm32f10x_rcc.c ****   assert_param(IS_FUNCTIONAL_STATE(NewState));
 1452              		.loc 1 1253 3 view .LVU338
1254:stm32f10x_lib/STM32F10x_StdPeriph_Driver/src/stm32f10x_rcc.c ****   *(__IO uint32_t *) CR_CSSON_BB = (uint32_t)NewState;
 1453              		.loc 1 1254 3 view .LVU339
 1454              	@ stm32f10x_lib/STM32F10x_StdPeriph_Driver/src/stm32f10x_rcc.c:1254:   *(__IO uint32_t *) CR_CSSON_
 1455              		.loc 1 1254 34 is_stmt 0 view .LVU340
 1456 02bc 014B     		ldr	r3, .L110	@ tmp112,
 1457 02be 1860     		str	r0, [r3]	@ NewState, MEM[(volatile uint32_t *)1111621708B]
 1458              	@ stm32f10x_lib/STM32F10x_StdPeriph_Driver/src/stm32f10x_rcc.c:1255: }
1255:stm32f10x_lib/STM32F10x_StdPeriph_Driver/src/stm32f10x_rcc.c **** }
 1459              		.loc 1 1255 1 view .LVU341
 1460 02c0 7047     		bx	lr	@
 1461              	.L111:
 1462 02c2 00BF     		.align	2
 1463              	.L110:
 1464 02c4 4C004242 		.word	1111621708
 1465              		.cfi_endproc
 1466              	.LFE56:
 1467              		.size	RCC_ClockSecuritySystemCmd, .-RCC_ClockSecuritySystemCmd
 1468              		.align	1
 1469              		.global	RCC_MCOConfig
 1470              		.syntax unified
 1471              		.thumb
 1472              		.thumb_func
 1473              		.fpu softvfp
 1474              		.type	RCC_MCOConfig, %function
 1475              	RCC_MCOConfig:
 1476              	.LVL92:
 1477              	.LFB57:
1256:stm32f10x_lib/STM32F10x_StdPeriph_Driver/src/stm32f10x_rcc.c **** 
1257:stm32f10x_lib/STM32F10x_StdPeriph_Driver/src/stm32f10x_rcc.c **** /**
ARM GAS  /tmp/cc6sR8f9.s 			page 50


1258:stm32f10x_lib/STM32F10x_StdPeriph_Driver/src/stm32f10x_rcc.c ****   * @brief  Selects the clock source to output on MCO pin.
1259:stm32f10x_lib/STM32F10x_StdPeriph_Driver/src/stm32f10x_rcc.c ****   * @param  RCC_MCO: specifies the clock source to output.
1260:stm32f10x_lib/STM32F10x_StdPeriph_Driver/src/stm32f10x_rcc.c ****   *   
1261:stm32f10x_lib/STM32F10x_StdPeriph_Driver/src/stm32f10x_rcc.c ****   *   For @b STM32_Connectivity_line_devices, this parameter can be one of the
1262:stm32f10x_lib/STM32F10x_StdPeriph_Driver/src/stm32f10x_rcc.c ****   *   following values:       
1263:stm32f10x_lib/STM32F10x_StdPeriph_Driver/src/stm32f10x_rcc.c ****   *     @arg RCC_MCO_NoClock: No clock selected
1264:stm32f10x_lib/STM32F10x_StdPeriph_Driver/src/stm32f10x_rcc.c ****   *     @arg RCC_MCO_SYSCLK: System clock selected
1265:stm32f10x_lib/STM32F10x_StdPeriph_Driver/src/stm32f10x_rcc.c ****   *     @arg RCC_MCO_HSI: HSI oscillator clock selected
1266:stm32f10x_lib/STM32F10x_StdPeriph_Driver/src/stm32f10x_rcc.c ****   *     @arg RCC_MCO_HSE: HSE oscillator clock selected
1267:stm32f10x_lib/STM32F10x_StdPeriph_Driver/src/stm32f10x_rcc.c ****   *     @arg RCC_MCO_PLLCLK_Div2: PLL clock divided by 2 selected
1268:stm32f10x_lib/STM32F10x_StdPeriph_Driver/src/stm32f10x_rcc.c ****   *     @arg RCC_MCO_PLL2CLK: PLL2 clock selected                     
1269:stm32f10x_lib/STM32F10x_StdPeriph_Driver/src/stm32f10x_rcc.c ****   *     @arg RCC_MCO_PLL3CLK_Div2: PLL3 clock divided by 2 selected   
1270:stm32f10x_lib/STM32F10x_StdPeriph_Driver/src/stm32f10x_rcc.c ****   *     @arg RCC_MCO_XT1: External 3-25 MHz oscillator clock selected  
1271:stm32f10x_lib/STM32F10x_StdPeriph_Driver/src/stm32f10x_rcc.c ****   *     @arg RCC_MCO_PLL3CLK: PLL3 clock selected 
1272:stm32f10x_lib/STM32F10x_StdPeriph_Driver/src/stm32f10x_rcc.c ****   * 
1273:stm32f10x_lib/STM32F10x_StdPeriph_Driver/src/stm32f10x_rcc.c ****   *   For  @b other_STM32_devices, this parameter can be one of the following values:        
1274:stm32f10x_lib/STM32F10x_StdPeriph_Driver/src/stm32f10x_rcc.c ****   *     @arg RCC_MCO_NoClock: No clock selected
1275:stm32f10x_lib/STM32F10x_StdPeriph_Driver/src/stm32f10x_rcc.c ****   *     @arg RCC_MCO_SYSCLK: System clock selected
1276:stm32f10x_lib/STM32F10x_StdPeriph_Driver/src/stm32f10x_rcc.c ****   *     @arg RCC_MCO_HSI: HSI oscillator clock selected
1277:stm32f10x_lib/STM32F10x_StdPeriph_Driver/src/stm32f10x_rcc.c ****   *     @arg RCC_MCO_HSE: HSE oscillator clock selected
1278:stm32f10x_lib/STM32F10x_StdPeriph_Driver/src/stm32f10x_rcc.c ****   *     @arg RCC_MCO_PLLCLK_Div2: PLL clock divided by 2 selected
1279:stm32f10x_lib/STM32F10x_StdPeriph_Driver/src/stm32f10x_rcc.c ****   *   
1280:stm32f10x_lib/STM32F10x_StdPeriph_Driver/src/stm32f10x_rcc.c ****   * @retval None
1281:stm32f10x_lib/STM32F10x_StdPeriph_Driver/src/stm32f10x_rcc.c ****   */
1282:stm32f10x_lib/STM32F10x_StdPeriph_Driver/src/stm32f10x_rcc.c **** void RCC_MCOConfig(uint8_t RCC_MCO)
1283:stm32f10x_lib/STM32F10x_StdPeriph_Driver/src/stm32f10x_rcc.c **** {
 1478              		.loc 1 1283 1 is_stmt 1 view -0
 1479              		.cfi_startproc
 1480              		@ args = 0, pretend = 0, frame = 0
 1481              		@ frame_needed = 0, uses_anonymous_args = 0
 1482              		@ link register save eliminated.
1284:stm32f10x_lib/STM32F10x_StdPeriph_Driver/src/stm32f10x_rcc.c ****   /* Check the parameters */
1285:stm32f10x_lib/STM32F10x_StdPeriph_Driver/src/stm32f10x_rcc.c ****   assert_param(IS_RCC_MCO(RCC_MCO));
 1483              		.loc 1 1285 3 view .LVU343
1286:stm32f10x_lib/STM32F10x_StdPeriph_Driver/src/stm32f10x_rcc.c **** 
1287:stm32f10x_lib/STM32F10x_StdPeriph_Driver/src/stm32f10x_rcc.c ****   /* Perform Byte access to MCO bits to select the MCO source */
1288:stm32f10x_lib/STM32F10x_StdPeriph_Driver/src/stm32f10x_rcc.c ****   *(__IO uint8_t *) CFGR_BYTE4_ADDRESS = RCC_MCO;
 1484              		.loc 1 1288 3 view .LVU344
 1485              	@ stm32f10x_lib/STM32F10x_StdPeriph_Driver/src/stm32f10x_rcc.c:1288:   *(__IO uint8_t *) CFGR_BYTE4
 1486              		.loc 1 1288 40 is_stmt 0 view .LVU345
 1487 02c8 014B     		ldr	r3, .L113	@ tmp111,
 1488 02ca 1870     		strb	r0, [r3]	@ RCC_MCO, MEM[(volatile uint8_t *)1073876999B]
 1489              	@ stm32f10x_lib/STM32F10x_StdPeriph_Driver/src/stm32f10x_rcc.c:1289: }
1289:stm32f10x_lib/STM32F10x_StdPeriph_Driver/src/stm32f10x_rcc.c **** }
 1490              		.loc 1 1289 1 view .LVU346
 1491 02cc 7047     		bx	lr	@
 1492              	.L114:
 1493 02ce 00BF     		.align	2
 1494              	.L113:
 1495 02d0 07100240 		.word	1073876999
 1496              		.cfi_endproc
 1497              	.LFE57:
 1498              		.size	RCC_MCOConfig, .-RCC_MCOConfig
 1499              		.align	1
 1500              		.global	RCC_GetFlagStatus
 1501              		.syntax unified
 1502              		.thumb
ARM GAS  /tmp/cc6sR8f9.s 			page 51


 1503              		.thumb_func
 1504              		.fpu softvfp
 1505              		.type	RCC_GetFlagStatus, %function
 1506              	RCC_GetFlagStatus:
 1507              	.LVL93:
 1508              	.LFB58:
1290:stm32f10x_lib/STM32F10x_StdPeriph_Driver/src/stm32f10x_rcc.c **** 
1291:stm32f10x_lib/STM32F10x_StdPeriph_Driver/src/stm32f10x_rcc.c **** /**
1292:stm32f10x_lib/STM32F10x_StdPeriph_Driver/src/stm32f10x_rcc.c ****   * @brief  Checks whether the specified RCC flag is set or not.
1293:stm32f10x_lib/STM32F10x_StdPeriph_Driver/src/stm32f10x_rcc.c ****   * @param  RCC_FLAG: specifies the flag to check.
1294:stm32f10x_lib/STM32F10x_StdPeriph_Driver/src/stm32f10x_rcc.c ****   *   
1295:stm32f10x_lib/STM32F10x_StdPeriph_Driver/src/stm32f10x_rcc.c ****   *   For @b STM32_Connectivity_line_devices, this parameter can be one of the
1296:stm32f10x_lib/STM32F10x_StdPeriph_Driver/src/stm32f10x_rcc.c ****   *   following values:
1297:stm32f10x_lib/STM32F10x_StdPeriph_Driver/src/stm32f10x_rcc.c ****   *     @arg RCC_FLAG_HSIRDY: HSI oscillator clock ready
1298:stm32f10x_lib/STM32F10x_StdPeriph_Driver/src/stm32f10x_rcc.c ****   *     @arg RCC_FLAG_HSERDY: HSE oscillator clock ready
1299:stm32f10x_lib/STM32F10x_StdPeriph_Driver/src/stm32f10x_rcc.c ****   *     @arg RCC_FLAG_PLLRDY: PLL clock ready
1300:stm32f10x_lib/STM32F10x_StdPeriph_Driver/src/stm32f10x_rcc.c ****   *     @arg RCC_FLAG_PLL2RDY: PLL2 clock ready      
1301:stm32f10x_lib/STM32F10x_StdPeriph_Driver/src/stm32f10x_rcc.c ****   *     @arg RCC_FLAG_PLL3RDY: PLL3 clock ready                           
1302:stm32f10x_lib/STM32F10x_StdPeriph_Driver/src/stm32f10x_rcc.c ****   *     @arg RCC_FLAG_LSERDY: LSE oscillator clock ready
1303:stm32f10x_lib/STM32F10x_StdPeriph_Driver/src/stm32f10x_rcc.c ****   *     @arg RCC_FLAG_LSIRDY: LSI oscillator clock ready
1304:stm32f10x_lib/STM32F10x_StdPeriph_Driver/src/stm32f10x_rcc.c ****   *     @arg RCC_FLAG_PINRST: Pin reset
1305:stm32f10x_lib/STM32F10x_StdPeriph_Driver/src/stm32f10x_rcc.c ****   *     @arg RCC_FLAG_PORRST: POR/PDR reset
1306:stm32f10x_lib/STM32F10x_StdPeriph_Driver/src/stm32f10x_rcc.c ****   *     @arg RCC_FLAG_SFTRST: Software reset
1307:stm32f10x_lib/STM32F10x_StdPeriph_Driver/src/stm32f10x_rcc.c ****   *     @arg RCC_FLAG_IWDGRST: Independent Watchdog reset
1308:stm32f10x_lib/STM32F10x_StdPeriph_Driver/src/stm32f10x_rcc.c ****   *     @arg RCC_FLAG_WWDGRST: Window Watchdog reset
1309:stm32f10x_lib/STM32F10x_StdPeriph_Driver/src/stm32f10x_rcc.c ****   *     @arg RCC_FLAG_LPWRRST: Low Power reset
1310:stm32f10x_lib/STM32F10x_StdPeriph_Driver/src/stm32f10x_rcc.c ****   * 
1311:stm32f10x_lib/STM32F10x_StdPeriph_Driver/src/stm32f10x_rcc.c ****   *   For @b other_STM32_devices, this parameter can be one of the following values:        
1312:stm32f10x_lib/STM32F10x_StdPeriph_Driver/src/stm32f10x_rcc.c ****   *     @arg RCC_FLAG_HSIRDY: HSI oscillator clock ready
1313:stm32f10x_lib/STM32F10x_StdPeriph_Driver/src/stm32f10x_rcc.c ****   *     @arg RCC_FLAG_HSERDY: HSE oscillator clock ready
1314:stm32f10x_lib/STM32F10x_StdPeriph_Driver/src/stm32f10x_rcc.c ****   *     @arg RCC_FLAG_PLLRDY: PLL clock ready
1315:stm32f10x_lib/STM32F10x_StdPeriph_Driver/src/stm32f10x_rcc.c ****   *     @arg RCC_FLAG_LSERDY: LSE oscillator clock ready
1316:stm32f10x_lib/STM32F10x_StdPeriph_Driver/src/stm32f10x_rcc.c ****   *     @arg RCC_FLAG_LSIRDY: LSI oscillator clock ready
1317:stm32f10x_lib/STM32F10x_StdPeriph_Driver/src/stm32f10x_rcc.c ****   *     @arg RCC_FLAG_PINRST: Pin reset
1318:stm32f10x_lib/STM32F10x_StdPeriph_Driver/src/stm32f10x_rcc.c ****   *     @arg RCC_FLAG_PORRST: POR/PDR reset
1319:stm32f10x_lib/STM32F10x_StdPeriph_Driver/src/stm32f10x_rcc.c ****   *     @arg RCC_FLAG_SFTRST: Software reset
1320:stm32f10x_lib/STM32F10x_StdPeriph_Driver/src/stm32f10x_rcc.c ****   *     @arg RCC_FLAG_IWDGRST: Independent Watchdog reset
1321:stm32f10x_lib/STM32F10x_StdPeriph_Driver/src/stm32f10x_rcc.c ****   *     @arg RCC_FLAG_WWDGRST: Window Watchdog reset
1322:stm32f10x_lib/STM32F10x_StdPeriph_Driver/src/stm32f10x_rcc.c ****   *     @arg RCC_FLAG_LPWRRST: Low Power reset
1323:stm32f10x_lib/STM32F10x_StdPeriph_Driver/src/stm32f10x_rcc.c ****   *   
1324:stm32f10x_lib/STM32F10x_StdPeriph_Driver/src/stm32f10x_rcc.c ****   * @retval The new state of RCC_FLAG (SET or RESET).
1325:stm32f10x_lib/STM32F10x_StdPeriph_Driver/src/stm32f10x_rcc.c ****   */
1326:stm32f10x_lib/STM32F10x_StdPeriph_Driver/src/stm32f10x_rcc.c **** FlagStatus RCC_GetFlagStatus(uint8_t RCC_FLAG)
1327:stm32f10x_lib/STM32F10x_StdPeriph_Driver/src/stm32f10x_rcc.c **** {
 1509              		.loc 1 1327 1 is_stmt 1 view -0
 1510              		.cfi_startproc
 1511              		@ args = 0, pretend = 0, frame = 0
 1512              		@ frame_needed = 0, uses_anonymous_args = 0
 1513              		@ link register save eliminated.
1328:stm32f10x_lib/STM32F10x_StdPeriph_Driver/src/stm32f10x_rcc.c ****   uint32_t tmp = 0;
 1514              		.loc 1 1328 3 view .LVU348
1329:stm32f10x_lib/STM32F10x_StdPeriph_Driver/src/stm32f10x_rcc.c ****   uint32_t statusreg = 0;
 1515              		.loc 1 1329 3 view .LVU349
1330:stm32f10x_lib/STM32F10x_StdPeriph_Driver/src/stm32f10x_rcc.c ****   FlagStatus bitstatus = RESET;
 1516              		.loc 1 1330 3 view .LVU350
1331:stm32f10x_lib/STM32F10x_StdPeriph_Driver/src/stm32f10x_rcc.c ****   /* Check the parameters */
1332:stm32f10x_lib/STM32F10x_StdPeriph_Driver/src/stm32f10x_rcc.c ****   assert_param(IS_RCC_FLAG(RCC_FLAG));
ARM GAS  /tmp/cc6sR8f9.s 			page 52


 1517              		.loc 1 1332 3 view .LVU351
1333:stm32f10x_lib/STM32F10x_StdPeriph_Driver/src/stm32f10x_rcc.c **** 
1334:stm32f10x_lib/STM32F10x_StdPeriph_Driver/src/stm32f10x_rcc.c ****   /* Get the RCC register index */
1335:stm32f10x_lib/STM32F10x_StdPeriph_Driver/src/stm32f10x_rcc.c ****   tmp = RCC_FLAG >> 5;
 1518              		.loc 1 1335 3 view .LVU352
 1519              	@ stm32f10x_lib/STM32F10x_StdPeriph_Driver/src/stm32f10x_rcc.c:1335:   tmp = RCC_FLAG >> 5;
 1520              		.loc 1 1335 18 is_stmt 0 view .LVU353
 1521 02d4 4209     		lsrs	r2, r0, #5	@ _1, RCC_FLAG,
 1522              	.LVL94:
1336:stm32f10x_lib/STM32F10x_StdPeriph_Driver/src/stm32f10x_rcc.c ****   if (tmp == 1)               /* The flag to check is in CR register */
 1523              		.loc 1 1336 3 is_stmt 1 view .LVU354
 1524              	@ stm32f10x_lib/STM32F10x_StdPeriph_Driver/src/stm32f10x_rcc.c:1336:   if (tmp == 1)               
 1525              		.loc 1 1336 6 is_stmt 0 view .LVU355
 1526 02d6 012A     		cmp	r2, #1	@ _1,
 1527 02d8 074B     		ldr	r3, .L119	@ tmp128,
 1528 02da 07D1     		bne	.L116		@,
1337:stm32f10x_lib/STM32F10x_StdPeriph_Driver/src/stm32f10x_rcc.c ****   {
1338:stm32f10x_lib/STM32F10x_StdPeriph_Driver/src/stm32f10x_rcc.c ****     statusreg = RCC->CR;
 1529              		.loc 1 1338 5 is_stmt 1 view .LVU356
 1530              	@ stm32f10x_lib/STM32F10x_StdPeriph_Driver/src/stm32f10x_rcc.c:1338:     statusreg = RCC->CR;
 1531              		.loc 1 1338 15 is_stmt 0 view .LVU357
 1532 02dc 1B68     		ldr	r3, [r3]	@ statusreg, MEM[(struct RCC_TypeDef *)1073876992B].CR
 1533              	.LVL95:
 1534              	.L117:
1339:stm32f10x_lib/STM32F10x_StdPeriph_Driver/src/stm32f10x_rcc.c ****   }
1340:stm32f10x_lib/STM32F10x_StdPeriph_Driver/src/stm32f10x_rcc.c ****   else if (tmp == 2)          /* The flag to check is in BDCR register */
1341:stm32f10x_lib/STM32F10x_StdPeriph_Driver/src/stm32f10x_rcc.c ****   {
1342:stm32f10x_lib/STM32F10x_StdPeriph_Driver/src/stm32f10x_rcc.c ****     statusreg = RCC->BDCR;
1343:stm32f10x_lib/STM32F10x_StdPeriph_Driver/src/stm32f10x_rcc.c ****   }
1344:stm32f10x_lib/STM32F10x_StdPeriph_Driver/src/stm32f10x_rcc.c ****   else                       /* The flag to check is in CSR register */
1345:stm32f10x_lib/STM32F10x_StdPeriph_Driver/src/stm32f10x_rcc.c ****   {
1346:stm32f10x_lib/STM32F10x_StdPeriph_Driver/src/stm32f10x_rcc.c ****     statusreg = RCC->CSR;
1347:stm32f10x_lib/STM32F10x_StdPeriph_Driver/src/stm32f10x_rcc.c ****   }
1348:stm32f10x_lib/STM32F10x_StdPeriph_Driver/src/stm32f10x_rcc.c **** 
1349:stm32f10x_lib/STM32F10x_StdPeriph_Driver/src/stm32f10x_rcc.c ****   /* Get the flag position */
1350:stm32f10x_lib/STM32F10x_StdPeriph_Driver/src/stm32f10x_rcc.c ****   tmp = RCC_FLAG & FLAG_Mask;
 1535              		.loc 1 1350 3 is_stmt 1 view .LVU358
1351:stm32f10x_lib/STM32F10x_StdPeriph_Driver/src/stm32f10x_rcc.c ****   if ((statusreg & ((uint32_t)1 << tmp)) != (uint32_t)RESET)
 1536              		.loc 1 1351 3 view .LVU359
1352:stm32f10x_lib/STM32F10x_StdPeriph_Driver/src/stm32f10x_rcc.c ****   {
1353:stm32f10x_lib/STM32F10x_StdPeriph_Driver/src/stm32f10x_rcc.c ****     bitstatus = SET;
1354:stm32f10x_lib/STM32F10x_StdPeriph_Driver/src/stm32f10x_rcc.c ****   }
1355:stm32f10x_lib/STM32F10x_StdPeriph_Driver/src/stm32f10x_rcc.c ****   else
1356:stm32f10x_lib/STM32F10x_StdPeriph_Driver/src/stm32f10x_rcc.c ****   {
1357:stm32f10x_lib/STM32F10x_StdPeriph_Driver/src/stm32f10x_rcc.c ****     bitstatus = RESET;
1358:stm32f10x_lib/STM32F10x_StdPeriph_Driver/src/stm32f10x_rcc.c ****   }
1359:stm32f10x_lib/STM32F10x_StdPeriph_Driver/src/stm32f10x_rcc.c **** 
1360:stm32f10x_lib/STM32F10x_StdPeriph_Driver/src/stm32f10x_rcc.c ****   /* Return the flag status */
1361:stm32f10x_lib/STM32F10x_StdPeriph_Driver/src/stm32f10x_rcc.c ****   return bitstatus;
 1537              		.loc 1 1361 3 view .LVU360
 1538              	@ stm32f10x_lib/STM32F10x_StdPeriph_Driver/src/stm32f10x_rcc.c:1350:   tmp = RCC_FLAG & FLAG_Mask;
1350:stm32f10x_lib/STM32F10x_StdPeriph_Driver/src/stm32f10x_rcc.c ****   if ((statusreg & ((uint32_t)1 << tmp)) != (uint32_t)RESET)
 1539              		.loc 1 1350 7 is_stmt 0 view .LVU361
 1540 02de 00F01F00 		and	r0, r0, #31	@ tmp, RCC_FLAG,
 1541              	.LVL96:
 1542              	@ stm32f10x_lib/STM32F10x_StdPeriph_Driver/src/stm32f10x_rcc.c:1351:   if ((statusreg & ((uint32_t)
1351:stm32f10x_lib/STM32F10x_StdPeriph_Driver/src/stm32f10x_rcc.c ****   if ((statusreg & ((uint32_t)1 << tmp)) != (uint32_t)RESET)
ARM GAS  /tmp/cc6sR8f9.s 			page 53


 1543              		.loc 1 1351 42 view .LVU362
 1544 02e2 23FA00F0 		lsr	r0, r3, r0	@ tmp125, statusreg, tmp
 1545              	@ stm32f10x_lib/STM32F10x_StdPeriph_Driver/src/stm32f10x_rcc.c:1362: }
1362:stm32f10x_lib/STM32F10x_StdPeriph_Driver/src/stm32f10x_rcc.c **** }
 1546              		.loc 1 1362 1 view .LVU363
 1547 02e6 00F00100 		and	r0, r0, #1	@, tmp125,
 1548 02ea 7047     		bx	lr	@
 1549              	.LVL97:
 1550              	.L116:
1340:stm32f10x_lib/STM32F10x_StdPeriph_Driver/src/stm32f10x_rcc.c ****   {
 1551              		.loc 1 1340 8 is_stmt 1 view .LVU364
 1552              	@ stm32f10x_lib/STM32F10x_StdPeriph_Driver/src/stm32f10x_rcc.c:1340:   else if (tmp == 2)          
1340:stm32f10x_lib/STM32F10x_StdPeriph_Driver/src/stm32f10x_rcc.c ****   {
 1553              		.loc 1 1340 11 is_stmt 0 view .LVU365
 1554 02ec 022A     		cmp	r2, #2	@ _1,
1342:stm32f10x_lib/STM32F10x_StdPeriph_Driver/src/stm32f10x_rcc.c ****   }
 1555              		.loc 1 1342 5 is_stmt 1 view .LVU366
 1556              	@ stm32f10x_lib/STM32F10x_StdPeriph_Driver/src/stm32f10x_rcc.c:1342:     statusreg = RCC->BDCR;
1342:stm32f10x_lib/STM32F10x_StdPeriph_Driver/src/stm32f10x_rcc.c ****   }
 1557              		.loc 1 1342 15 is_stmt 0 view .LVU367
 1558 02ee 0CBF     		ite	eq
 1559 02f0 1B6A     		ldreq	r3, [r3, #32]	@ statusreg, MEM[(struct RCC_TypeDef *)1073876992B].BDCR
 1560              	.LVL98:
1346:stm32f10x_lib/STM32F10x_StdPeriph_Driver/src/stm32f10x_rcc.c ****   }
 1561              		.loc 1 1346 5 is_stmt 1 view .LVU368
 1562              	@ stm32f10x_lib/STM32F10x_StdPeriph_Driver/src/stm32f10x_rcc.c:1346:     statusreg = RCC->CSR;
1346:stm32f10x_lib/STM32F10x_StdPeriph_Driver/src/stm32f10x_rcc.c ****   }
 1563              		.loc 1 1346 15 is_stmt 0 view .LVU369
 1564 02f2 5B6A     		ldrne	r3, [r3, #36]	@ statusreg, MEM[(struct RCC_TypeDef *)1073876992B].CSR
 1565              	.LVL99:
1346:stm32f10x_lib/STM32F10x_StdPeriph_Driver/src/stm32f10x_rcc.c ****   }
 1566              		.loc 1 1346 15 view .LVU370
 1567 02f4 F3E7     		b	.L117		@
 1568              	.L120:
 1569 02f6 00BF     		.align	2
 1570              	.L119:
 1571 02f8 00100240 		.word	1073876992
 1572              		.cfi_endproc
 1573              	.LFE58:
 1574              		.size	RCC_GetFlagStatus, .-RCC_GetFlagStatus
 1575              		.align	1
 1576              		.global	RCC_WaitForHSEStartUp
 1577              		.syntax unified
 1578              		.thumb
 1579              		.thumb_func
 1580              		.fpu softvfp
 1581              		.type	RCC_WaitForHSEStartUp, %function
 1582              	RCC_WaitForHSEStartUp:
 1583              	.LFB31:
 305:stm32f10x_lib/STM32F10x_StdPeriph_Driver/src/stm32f10x_rcc.c ****   __IO uint32_t StartUpCounter = 0;
 1584              		.loc 1 305 1 is_stmt 1 view -0
 1585              		.cfi_startproc
 1586              		@ args = 0, pretend = 0, frame = 8
 1587              		@ frame_needed = 0, uses_anonymous_args = 0
 306:stm32f10x_lib/STM32F10x_StdPeriph_Driver/src/stm32f10x_rcc.c ****   ErrorStatus status = ERROR;
 1588              		.loc 1 306 3 view .LVU372
 1589              	@ stm32f10x_lib/STM32F10x_StdPeriph_Driver/src/stm32f10x_rcc.c:306:   __IO uint32_t StartUpCounter 
ARM GAS  /tmp/cc6sR8f9.s 			page 54


 306:stm32f10x_lib/STM32F10x_StdPeriph_Driver/src/stm32f10x_rcc.c ****   ErrorStatus status = ERROR;
 1590              		.loc 1 306 17 is_stmt 0 view .LVU373
 1591 02fc 0023     		movs	r3, #0	@ tmp117,
 1592              	@ stm32f10x_lib/STM32F10x_StdPeriph_Driver/src/stm32f10x_rcc.c:305: {
 305:stm32f10x_lib/STM32F10x_StdPeriph_Driver/src/stm32f10x_rcc.c ****   __IO uint32_t StartUpCounter = 0;
 1593              		.loc 1 305 1 view .LVU374
 1594 02fe 07B5     		push	{r0, r1, r2, lr}	@
 1595              	.LCFI1:
 1596              		.cfi_def_cfa_offset 16
 1597              		.cfi_offset 14, -4
 1598              	@ stm32f10x_lib/STM32F10x_StdPeriph_Driver/src/stm32f10x_rcc.c:306:   __IO uint32_t StartUpCounter 
 306:stm32f10x_lib/STM32F10x_StdPeriph_Driver/src/stm32f10x_rcc.c ****   ErrorStatus status = ERROR;
 1599              		.loc 1 306 17 view .LVU375
 1600 0300 0193     		str	r3, [sp, #4]	@ tmp117, StartUpCounter
 307:stm32f10x_lib/STM32F10x_StdPeriph_Driver/src/stm32f10x_rcc.c ****   FlagStatus HSEStatus = RESET;
 1601              		.loc 1 307 3 is_stmt 1 view .LVU376
 1602              	.LVL100:
 308:stm32f10x_lib/STM32F10x_StdPeriph_Driver/src/stm32f10x_rcc.c ****   
 1603              		.loc 1 308 3 view .LVU377
 1604              	.L123:
 311:stm32f10x_lib/STM32F10x_StdPeriph_Driver/src/stm32f10x_rcc.c ****   {
 1605              		.loc 1 311 3 discriminator 2 view .LVU378
 313:stm32f10x_lib/STM32F10x_StdPeriph_Driver/src/stm32f10x_rcc.c ****     StartUpCounter++;  
 1606              		.loc 1 313 5 discriminator 2 view .LVU379
 1607              	@ stm32f10x_lib/STM32F10x_StdPeriph_Driver/src/stm32f10x_rcc.c:313:     HSEStatus = RCC_GetFlagStat
 313:stm32f10x_lib/STM32F10x_StdPeriph_Driver/src/stm32f10x_rcc.c ****     StartUpCounter++;  
 1608              		.loc 1 313 17 is_stmt 0 discriminator 2 view .LVU380
 1609 0302 3120     		movs	r0, #49	@,
 1610 0304 FFF7FEFF 		bl	RCC_GetFlagStatus		@
 1611              	.LVL101:
 314:stm32f10x_lib/STM32F10x_StdPeriph_Driver/src/stm32f10x_rcc.c ****   } while((StartUpCounter != HSE_STARTUP_TIMEOUT) && (HSEStatus == RESET));
 1612              		.loc 1 314 5 is_stmt 1 discriminator 2 view .LVU381
 1613              	@ stm32f10x_lib/STM32F10x_StdPeriph_Driver/src/stm32f10x_rcc.c:314:     StartUpCounter++;  
 314:stm32f10x_lib/STM32F10x_StdPeriph_Driver/src/stm32f10x_rcc.c ****   } while((StartUpCounter != HSE_STARTUP_TIMEOUT) && (HSEStatus == RESET));
 1614              		.loc 1 314 19 is_stmt 0 discriminator 2 view .LVU382
 1615 0308 019B     		ldr	r3, [sp, #4]	@ StartUpCounter.0_1, StartUpCounter
 1616 030a 0133     		adds	r3, r3, #1	@ _2, StartUpCounter.0_1,
 1617 030c 0193     		str	r3, [sp, #4]	@ _2, StartUpCounter
 315:stm32f10x_lib/STM32F10x_StdPeriph_Driver/src/stm32f10x_rcc.c ****   
 1618              		.loc 1 315 10 is_stmt 1 discriminator 2 view .LVU383
 1619              	@ stm32f10x_lib/STM32F10x_StdPeriph_Driver/src/stm32f10x_rcc.c:315:   } while((StartUpCounter != HS
 315:stm32f10x_lib/STM32F10x_StdPeriph_Driver/src/stm32f10x_rcc.c ****   
 1620              		.loc 1 315 27 is_stmt 0 discriminator 2 view .LVU384
 1621 030e 019B     		ldr	r3, [sp, #4]	@ StartUpCounter.1_3, StartUpCounter
 1622              	@ stm32f10x_lib/STM32F10x_StdPeriph_Driver/src/stm32f10x_rcc.c:315:   } while((StartUpCounter != HS
 315:stm32f10x_lib/STM32F10x_StdPeriph_Driver/src/stm32f10x_rcc.c ****   
 1623              		.loc 1 315 3 discriminator 2 view .LVU385
 1624 0310 B3F5A06F 		cmp	r3, #1280	@ StartUpCounter.1_3,
 1625 0314 01D0     		beq	.L122		@,
 1626              	@ stm32f10x_lib/STM32F10x_StdPeriph_Driver/src/stm32f10x_rcc.c:315:   } while((StartUpCounter != HS
 315:stm32f10x_lib/STM32F10x_StdPeriph_Driver/src/stm32f10x_rcc.c ****   
 1627              		.loc 1 315 51 discriminator 1 view .LVU386
 1628 0316 0028     		cmp	r0, #0	@ tmp118
 1629 0318 F3D0     		beq	.L123	@
 1630              	.L122:
 317:stm32f10x_lib/STM32F10x_StdPeriph_Driver/src/stm32f10x_rcc.c ****   {
 1631              		.loc 1 317 3 is_stmt 1 view .LVU387
ARM GAS  /tmp/cc6sR8f9.s 			page 55


 1632              	@ stm32f10x_lib/STM32F10x_StdPeriph_Driver/src/stm32f10x_rcc.c:317:   if (RCC_GetFlagStatus(RCC_FLA
 317:stm32f10x_lib/STM32F10x_StdPeriph_Driver/src/stm32f10x_rcc.c ****   {
 1633              		.loc 1 317 7 is_stmt 0 view .LVU388
 1634 031a 3120     		movs	r0, #49	@,
 1635              	.LVL102:
 317:stm32f10x_lib/STM32F10x_StdPeriph_Driver/src/stm32f10x_rcc.c ****   {
 1636              		.loc 1 317 7 view .LVU389
 1637 031c FFF7FEFF 		bl	RCC_GetFlagStatus		@
 1638              	.LVL103:
 325:stm32f10x_lib/STM32F10x_StdPeriph_Driver/src/stm32f10x_rcc.c **** }
 1639              		.loc 1 325 3 is_stmt 1 view .LVU390
 1640              	@ stm32f10x_lib/STM32F10x_StdPeriph_Driver/src/stm32f10x_rcc.c:326: }
 326:stm32f10x_lib/STM32F10x_StdPeriph_Driver/src/stm32f10x_rcc.c **** 
 1641              		.loc 1 326 1 is_stmt 0 view .LVU391
 1642 0320 0038     		subs	r0, r0, #0	@, tmp125,
 1643              	.LVL104:
 326:stm32f10x_lib/STM32F10x_StdPeriph_Driver/src/stm32f10x_rcc.c **** 
 1644              		.loc 1 326 1 view .LVU392
 1645 0322 18BF     		it	ne
 1646 0324 0120     		movne	r0, #1	@,
 1647 0326 03B0     		add	sp, sp, #12	@,,
 1648              	.LCFI2:
 1649              		.cfi_def_cfa_offset 4
 1650              		@ sp needed	@
 1651 0328 5DF804FB 		ldr	pc, [sp], #4	@
 1652              		.cfi_endproc
 1653              	.LFE31:
 1654              		.size	RCC_WaitForHSEStartUp, .-RCC_WaitForHSEStartUp
 1655              		.align	1
 1656              		.global	RCC_ClearFlag
 1657              		.syntax unified
 1658              		.thumb
 1659              		.thumb_func
 1660              		.fpu softvfp
 1661              		.type	RCC_ClearFlag, %function
 1662              	RCC_ClearFlag:
 1663              	.LFB59:
1363:stm32f10x_lib/STM32F10x_StdPeriph_Driver/src/stm32f10x_rcc.c **** 
1364:stm32f10x_lib/STM32F10x_StdPeriph_Driver/src/stm32f10x_rcc.c **** /**
1365:stm32f10x_lib/STM32F10x_StdPeriph_Driver/src/stm32f10x_rcc.c ****   * @brief  Clears the RCC reset flags.
1366:stm32f10x_lib/STM32F10x_StdPeriph_Driver/src/stm32f10x_rcc.c ****   * @note   The reset flags are: RCC_FLAG_PINRST, RCC_FLAG_PORRST, RCC_FLAG_SFTRST,
1367:stm32f10x_lib/STM32F10x_StdPeriph_Driver/src/stm32f10x_rcc.c ****   *   RCC_FLAG_IWDGRST, RCC_FLAG_WWDGRST, RCC_FLAG_LPWRRST
1368:stm32f10x_lib/STM32F10x_StdPeriph_Driver/src/stm32f10x_rcc.c ****   * @param  None
1369:stm32f10x_lib/STM32F10x_StdPeriph_Driver/src/stm32f10x_rcc.c ****   * @retval None
1370:stm32f10x_lib/STM32F10x_StdPeriph_Driver/src/stm32f10x_rcc.c ****   */
1371:stm32f10x_lib/STM32F10x_StdPeriph_Driver/src/stm32f10x_rcc.c **** void RCC_ClearFlag(void)
1372:stm32f10x_lib/STM32F10x_StdPeriph_Driver/src/stm32f10x_rcc.c **** {
 1664              		.loc 1 1372 1 is_stmt 1 view -0
 1665              		.cfi_startproc
 1666              		@ args = 0, pretend = 0, frame = 0
 1667              		@ frame_needed = 0, uses_anonymous_args = 0
 1668              		@ link register save eliminated.
1373:stm32f10x_lib/STM32F10x_StdPeriph_Driver/src/stm32f10x_rcc.c ****   /* Set RMVF bit to clear the reset flags */
1374:stm32f10x_lib/STM32F10x_StdPeriph_Driver/src/stm32f10x_rcc.c ****   RCC->CSR |= CSR_RMVF_Set;
 1669              		.loc 1 1374 3 view .LVU394
 1670              	@ stm32f10x_lib/STM32F10x_StdPeriph_Driver/src/stm32f10x_rcc.c:1374:   RCC->CSR |= CSR_RMVF_Set;
 1671              		.loc 1 1374 12 is_stmt 0 view .LVU395
ARM GAS  /tmp/cc6sR8f9.s 			page 56


 1672 032c 024A     		ldr	r2, .L130	@ tmp112,
 1673 032e 536A     		ldr	r3, [r2, #36]	@ _1, MEM[(struct RCC_TypeDef *)1073876992B].CSR
 1674 0330 43F08073 		orr	r3, r3, #16777216	@ _2, _1,
 1675 0334 5362     		str	r3, [r2, #36]	@ _2, MEM[(struct RCC_TypeDef *)1073876992B].CSR
 1676              	@ stm32f10x_lib/STM32F10x_StdPeriph_Driver/src/stm32f10x_rcc.c:1375: }
1375:stm32f10x_lib/STM32F10x_StdPeriph_Driver/src/stm32f10x_rcc.c **** }
 1677              		.loc 1 1375 1 view .LVU396
 1678 0336 7047     		bx	lr	@
 1679              	.L131:
 1680              		.align	2
 1681              	.L130:
 1682 0338 00100240 		.word	1073876992
 1683              		.cfi_endproc
 1684              	.LFE59:
 1685              		.size	RCC_ClearFlag, .-RCC_ClearFlag
 1686              		.align	1
 1687              		.global	RCC_GetITStatus
 1688              		.syntax unified
 1689              		.thumb
 1690              		.thumb_func
 1691              		.fpu softvfp
 1692              		.type	RCC_GetITStatus, %function
 1693              	RCC_GetITStatus:
 1694              	.LVL105:
 1695              	.LFB60:
1376:stm32f10x_lib/STM32F10x_StdPeriph_Driver/src/stm32f10x_rcc.c **** 
1377:stm32f10x_lib/STM32F10x_StdPeriph_Driver/src/stm32f10x_rcc.c **** /**
1378:stm32f10x_lib/STM32F10x_StdPeriph_Driver/src/stm32f10x_rcc.c ****   * @brief  Checks whether the specified RCC interrupt has occurred or not.
1379:stm32f10x_lib/STM32F10x_StdPeriph_Driver/src/stm32f10x_rcc.c ****   * @param  RCC_IT: specifies the RCC interrupt source to check.
1380:stm32f10x_lib/STM32F10x_StdPeriph_Driver/src/stm32f10x_rcc.c ****   *   
1381:stm32f10x_lib/STM32F10x_StdPeriph_Driver/src/stm32f10x_rcc.c ****   *   For @b STM32_Connectivity_line_devices, this parameter can be one of the
1382:stm32f10x_lib/STM32F10x_StdPeriph_Driver/src/stm32f10x_rcc.c ****   *   following values:
1383:stm32f10x_lib/STM32F10x_StdPeriph_Driver/src/stm32f10x_rcc.c ****   *     @arg RCC_IT_LSIRDY: LSI ready interrupt
1384:stm32f10x_lib/STM32F10x_StdPeriph_Driver/src/stm32f10x_rcc.c ****   *     @arg RCC_IT_LSERDY: LSE ready interrupt
1385:stm32f10x_lib/STM32F10x_StdPeriph_Driver/src/stm32f10x_rcc.c ****   *     @arg RCC_IT_HSIRDY: HSI ready interrupt
1386:stm32f10x_lib/STM32F10x_StdPeriph_Driver/src/stm32f10x_rcc.c ****   *     @arg RCC_IT_HSERDY: HSE ready interrupt
1387:stm32f10x_lib/STM32F10x_StdPeriph_Driver/src/stm32f10x_rcc.c ****   *     @arg RCC_IT_PLLRDY: PLL ready interrupt
1388:stm32f10x_lib/STM32F10x_StdPeriph_Driver/src/stm32f10x_rcc.c ****   *     @arg RCC_IT_PLL2RDY: PLL2 ready interrupt 
1389:stm32f10x_lib/STM32F10x_StdPeriph_Driver/src/stm32f10x_rcc.c ****   *     @arg RCC_IT_PLL3RDY: PLL3 ready interrupt                      
1390:stm32f10x_lib/STM32F10x_StdPeriph_Driver/src/stm32f10x_rcc.c ****   *     @arg RCC_IT_CSS: Clock Security System interrupt
1391:stm32f10x_lib/STM32F10x_StdPeriph_Driver/src/stm32f10x_rcc.c ****   * 
1392:stm32f10x_lib/STM32F10x_StdPeriph_Driver/src/stm32f10x_rcc.c ****   *   For @b other_STM32_devices, this parameter can be one of the following values:        
1393:stm32f10x_lib/STM32F10x_StdPeriph_Driver/src/stm32f10x_rcc.c ****   *     @arg RCC_IT_LSIRDY: LSI ready interrupt
1394:stm32f10x_lib/STM32F10x_StdPeriph_Driver/src/stm32f10x_rcc.c ****   *     @arg RCC_IT_LSERDY: LSE ready interrupt
1395:stm32f10x_lib/STM32F10x_StdPeriph_Driver/src/stm32f10x_rcc.c ****   *     @arg RCC_IT_HSIRDY: HSI ready interrupt
1396:stm32f10x_lib/STM32F10x_StdPeriph_Driver/src/stm32f10x_rcc.c ****   *     @arg RCC_IT_HSERDY: HSE ready interrupt
1397:stm32f10x_lib/STM32F10x_StdPeriph_Driver/src/stm32f10x_rcc.c ****   *     @arg RCC_IT_PLLRDY: PLL ready interrupt
1398:stm32f10x_lib/STM32F10x_StdPeriph_Driver/src/stm32f10x_rcc.c ****   *     @arg RCC_IT_CSS: Clock Security System interrupt
1399:stm32f10x_lib/STM32F10x_StdPeriph_Driver/src/stm32f10x_rcc.c ****   *   
1400:stm32f10x_lib/STM32F10x_StdPeriph_Driver/src/stm32f10x_rcc.c ****   * @retval The new state of RCC_IT (SET or RESET).
1401:stm32f10x_lib/STM32F10x_StdPeriph_Driver/src/stm32f10x_rcc.c ****   */
1402:stm32f10x_lib/STM32F10x_StdPeriph_Driver/src/stm32f10x_rcc.c **** ITStatus RCC_GetITStatus(uint8_t RCC_IT)
1403:stm32f10x_lib/STM32F10x_StdPeriph_Driver/src/stm32f10x_rcc.c **** {
 1696              		.loc 1 1403 1 is_stmt 1 view -0
 1697              		.cfi_startproc
 1698              		@ args = 0, pretend = 0, frame = 0
 1699              		@ frame_needed = 0, uses_anonymous_args = 0
ARM GAS  /tmp/cc6sR8f9.s 			page 57


 1700              		@ link register save eliminated.
1404:stm32f10x_lib/STM32F10x_StdPeriph_Driver/src/stm32f10x_rcc.c ****   ITStatus bitstatus = RESET;
 1701              		.loc 1 1404 3 view .LVU398
1405:stm32f10x_lib/STM32F10x_StdPeriph_Driver/src/stm32f10x_rcc.c ****   /* Check the parameters */
1406:stm32f10x_lib/STM32F10x_StdPeriph_Driver/src/stm32f10x_rcc.c ****   assert_param(IS_RCC_GET_IT(RCC_IT));
 1702              		.loc 1 1406 3 view .LVU399
1407:stm32f10x_lib/STM32F10x_StdPeriph_Driver/src/stm32f10x_rcc.c **** 
1408:stm32f10x_lib/STM32F10x_StdPeriph_Driver/src/stm32f10x_rcc.c ****   /* Check the status of the specified RCC interrupt */
